Certificate:
    Data:
        Version: 3 (0x2)
        Serial Number:
            21:fb:a8:19:58:5b:b7:77:c7:dc:11:cf:3e:04:71:c2:4c:ff:36:39
        Signature Algorithm: sha256WithRSAEncryption
        Issuer: C=AU, O=Dodgy Brothers, CN=Dodgy CA
        Validity
            Not Before: Mar 23 21:26:37 2023 GMT
            Not After : Mar 22 21:26:37 2024 GMT
        Subject: C=AU, O=Dodgy Brothers, CN=Brother 1, CN=Brother 2
        Subject Public Key Info:
            Public Key Algorithm: rsaEncryption
                Public-Key: (2048 bit)
                Modulus:
                    00:a8:ff:89:58:61:85:ae:de:db:2c:0f:d5:73:fb:
                    e2:b7:a8:1b:7a:75:60:2b:d4:7d:3c:73:76:b5:ae:
                    de:93:2f:7f:24:90:6d:c9:1c:f4:8a:38:cd:9f:a2:
                    80:16:56:cb:b4:2c:bb:93:e5:17:1f:ff:0d:c6:43:
                    fe:31:34:f8:28:d8:75:e9:a3:bb:88:82:ef:a3:72:
                    e2:53:62:05:45:4d:e0:31:97:ef:aa:9d:10:d2:58:
                    0d:9e:06:9e:32:bb:1b:08:56:5d:65:0f:3f:66:8e:
                    c2:36:a0:11:ff:c0:59:35:fd:49:1c:dd:1c:42:33:
                    06:78:ae:04:38:23:e5:e7:75:67:d3:94:ad:5a:a9:
                    40:1f:ac:59:10:f5:0c:c1:64:ad:4a:c4:c6:35:53:
                    b3:96:6a:82:1b:15:8b:d1:99:ab:e4:9e:6f:94:aa:
                    d2:96:e5:57:fb:8c:91:64:8a:3c:24:16:c6:d2:19:
                    be:82:60:13:3b:62:b0:ed:3e:1d:b3:ca:f9:6b:df:
                    31:b9:7a:9e:4b:47:68:a7:29:c7:3f:4a:e2:22:27:
                    b4:ef:90:63:d7:ef:d0:72:49:3e:5b:ad:b9:1b:d4:
                    2b:6f:86:68:dd:d5:73:12:b8:43:c9:dc:41:0f:a2:
                    a3:46:4f:8b:67:88:84:0f:61:fe:79:34:1f:4a:89:
                    1f:b7
                Exponent: 65537 (0x10001)
        X509v3 extensions:
            X509v3 Basic Constraints: 
                CA:FALSE
            X509v3 Subject Key Identifier: 
                E7:9B:E2:2A:AD:8A:6C:3A:CB:76:51:E5:8E:07:98:22:97:E1:73:A2
            X509v3 Authority Key Identifier: 
                B4:11:33:F1:D7:E2:5E:F7:53:9E:20:22:10:4F:86:06:BF:1F:C9:5E
    Signature Algorithm: sha256WithRSAEncryption
    Signature Value:
        70:98:0d:0f:fb:8d:b3:f7:ca:ef:c0:ff:74:95:bb:1c:03:75:
        4b:6d:60:4d:fc:43:9c:0e:db:d4:25:db:3a:50:7f:50:b6:e7:
        68:77:ba:7a:3f:32:ea:b4:14:3e:66:4f:ff:22:2a:be:d2:83:
        72:4e:af:75:aa:98:16:71:78:f4:fa:ec:23:08:0d:c2:4f:4f:
        5f:1a:db:a8:ea:e1:f1:39:ad:01:e7:fb:9c:5a:86:3e:58:6c:
        33:87:48:55:b2:b5:48:20:1d:21:1c:c6:12:a1:da:01:6a:03:
        bb:a4:c0:5f:47:d3:73:b0:0a:b1:bd:dc:af:54:2b:16:94:c7:
        f7:a9:69:c4:a4:9e:da:c7:9a:bb:36:1e:d8:2e:9a:2a:19:e6:
        68:16:ae:4e:e5:7d:de:e1:03:b5:17:c8:32:0c:b2:6e:7d:4d:
        89:71:10:c0:39:1c:89:39:3f:f3:f4:df:21:61:ba:c6:53:06:
        6e:ba:3c:eb:1b:a4:8c:06:7e:68:de:bd:70:11:f9:ea:4c:b5:
        6e:8f:da:05:17:7c:48:aa:30:29:8b:1f:4d:b3:e8:c0:9c:df:
        a4:2f:23:26:ee:dd:06:41:34:41:bb:7f:8d:ee:c7:f0:fa:eb:
        b7:12:d7:2d:0d:44:28:10:de:22:7e:89:51:37:95:70:c1:44:
        2e:98:6d:40
-----BEGIN CERTIFICATE-----
MIIDYjCCAkqgAwIBAgIUIfuoGVhbt3fH3BHPPgRxwkz/NjkwDQYJKoZIhvcNAQEL
BQAwOTELMAkGA1UEBhMCQVUxFzAVBgNVBAoMDkRvZGd5IEJyb3RoZXJzMREwDwYD
VQQDDAhEb2RneSBDQTAeFw0yMzAzMjMyMTI2MzdaFw0yNDAzMjIyMTI2MzdaME4x
CzAJBgNVBAYTAkFVMRcwFQYDVQQKDA5Eb2RneSBCcm90aGVyczESMBAGA1UEAwwJ
QnJvdGhlciAxMRIwEAYDVQQDDAlCcm90aGVyIDIwggEiMA0GCSqGSIb3DQEBAQUA
A4IBDwAwggEKAoIBAQCo/4lYYYWu3tssD9Vz++K3qBt6dWAr1H08c3a1rt6TL38k
kG3JHPSKOM2fooAWVsu0LLuT5Rcf/w3GQ/4xNPgo2HXpo7uIgu+jcuJTYgVFTeAx
l++qnRDSWA2eBp4yuxsIVl1lDz9mjsI2oBH/wFk1/Ukc3RxCMwZ4rgQ4I+XndWfT
lK1aqUAfrFkQ9QzBZK1KxMY1U7OWaoIbFYvRmavknm+UqtKW5Vf7jJFkijwkFsbS
Gb6CYBM7YrDtPh2zyvlr3zG5ep5LR2inKcc/SuIiJ7TvkGPX79ByST5brbkb1Ctv
hmjd1XMSuEPJ3EEPoqNGT4tniIQPYf55NB9KiR+3AgMBAAGjTTBLMAkGA1UdEwQC
MAAwHQYDVR0OBBYEFOeb4iqtimw6y3ZR5Y4HmCKX4XOiMB8GA1UdIwQYMBaAFLQR
M/HX4l73U54gIhBPhga/H8leMA0GCSqGSIb3DQEBCwUAA4IBAQBwmA0P+42z98rv
wP90lbscA3VLbWBN/EOcDtvUJds6UH9Qtudod7p6PzLqtBQ+Zk//Iiq+0oNyTq91
qpgWcXj0+uwjCA3CT09fGtuo6uHxOa0B5/ucWoY+WGwzh0hVsrVIIB0hHMYSodoB
agO7pMBfR9NzsAqxvdyvVCsWlMf3qWnEpJ7ax5q7Nh7YLpoqGeZoFq5O5X3e4QO1
F8gyDLJufU2JcRDAORyJOT/z9N8hYbrGUwZuujzrG6SMBn5o3r1wEfnqTLVuj9oF
F3xIqjApix9Ns+jAnN+kLyMm7t0GQTRBu3+N7sfw+uu3EtctDUQoEN4ifolRN5Vw
wUQumG1A
-----END CERTIFICATE-----
