Certificate:
    Data:
        Version: 3 (0x2)
        Serial Number:
            21:fb:a8:19:58:5b:b7:77:c7:dc:11:cf:3e:04:71:c2:4c:ff:36:42
        Signature Algorithm: sha1WithRSAEncryption
        Issuer: C=AU, O=Dodgy Brothers, CN=Dodgy CA
        Validity
            Not Before: Mar 23 21:26:41 2023 GMT
            Not After : Mar 22 21:26:41 2024 GMT
        Subject: C=AU, O=Dodgy Brothers, CN=Brother 1, CN=both_utctime
        Subject Public Key Info:
            Public Key Algorithm: rsaEncryption
                Public-Key: (2048 bit)
                Modulus:
                    00:be:95:86:fa:71:4c:6a:ea:51:98:50:4b:99:a1:
                    2c:66:15:f3:60:f3:e1:ff:69:fb:ce:48:01:1d:fe:
                    e1:2c:38:b0:e3:bd:8f:4b:48:a7:7e:3a:c6:73:e3:
                    ab:bf:e1:da:6e:96:f5:fe:c3:e4:b4:a8:ad:bc:56:
                    34:d4:96:25:74:27:c3:10:db:35:10:25:1c:8e:4b:
                    81:9b:fb:42:04:7c:6f:3d:e2:38:6c:0e:e4:2e:8e:
                    2a:18:6d:30:cd:67:2a:23:6b:37:cf:05:9f:cc:b7:
                    59:58:7f:ba:c4:0a:3f:8c:a4:ad:cb:98:9c:c0:f2:
                    8f:69:67:0f:c1:4e:33:cf:fc:85:5e:bb:5e:cf:93:
                    b0:cf:d9:f4:52:79:87:b1:f8:4d:15:68:65:d5:b7:
                    19:08:63:7f:5e:b1:34:ad:05:8f:5a:f0:e4:e1:8f:
                    25:f2:5c:5c:61:95:b0:56:2d:31:2b:08:65:79:e5:
                    b1:3b:9d:3e:b9:52:4b:ac:5d:c4:58:66:85:8d:81:
                    b3:04:28:f4:3f:2f:ac:92:01:62:d5:fd:8e:0b:da:
                    02:0c:7a:c7:6e:09:1c:ac:1c:b2:4c:d7:54:b8:26:
                    33:b2:5f:14:f3:b1:f9:3d:62:4d:40:99:6b:b6:e7:
                    89:58:97:d6:d4:4d:ea:4b:68:52:f3:3c:a8:b1:35:
                    88:db
                Exponent: 65537 (0x10001)
        X509v3 extensions:
            X509v3 Subject Key Identifier: 
                A1:DF:33:C3:CF:3E:53:41:A7:68:44:CC:AA:19:E1:84:C9:0D:BC:C6
            X509v3 Authority Key Identifier: 
                keyid:B4:11:33:F1:D7:E2:5E:F7:53:9E:20:22:10:4F:86:06:BF:1F:C9:5E
                DirName:/C=AU/O=Dodgy Brothers/CN=Dodgy CA
                serial:1A:8C:8E:AE:35:C6:45:97:F1:69:35:FE:22:51:22:2F:5C:8A:B5:A2
            X509v3 Basic Constraints: critical
                CA:TRUE, pathlen:1
            X509v3 Key Usage: 
                Certificate Sign, CRL Sign
            X509v3 Issuer Alternative Name: 
                <EMPTY>

    Signature Algorithm: sha1WithRSAEncryption
    Signature Value:
        87:b5:34:42:a9:82:78:d5:28:3f:47:16:55:ab:45:d3:ee:f0:
        dd:bd:98:6a:ee:bb:b1:9b:99:91:96:d2:2f:a6:ea:c1:87:37:
        7a:95:52:f2:6f:86:a9:a5:6a:33:fa:88:ec:85:5c:6a:6d:85:
        0e:17:3f:0b:f5:eb:73:05:f1:9b:c0:31:0d:5b:26:21:fb:16:
        0d:3e:4c:84:3d:61:a0:86:b6:c0:67:46:f7:18:cc:36:6a:39:
        fc:1b:cb:24:2c:5a:95:84:d9:01:9d:e4:05:45:3e:f4:9a:55:
        9e:ab:38:db:a1:1b:2b:9d:22:df:59:a4:9c:2b:0b:3b:3c:4f:
        83:75:2a:3d:58:d5:c3:8f:0f:33:74:cd:76:29:fa:d9:b4:50:
        64:dc:a0:6c:96:62:85:0f:d1:36:e6:cc:28:4b:b2:8a:2d:d5:
        8f:cf:e0:f8:02:15:aa:e3:c6:7e:23:31:3c:df:a5:d2:fa:8e:
        be:c0:6f:c1:3e:a0:5b:1f:ec:ad:7c:e2:84:f6:ff:bb:63:3e:
        b6:10:f0:2f:23:3c:1f:e8:38:95:f6:9f:4e:a9:d8:20:59:be:
        1d:d8:07:24:a8:3d:5b:70:12:86:ba:e6:68:48:85:7a:ae:46:
        6b:37:22:3c:a0:a7:d0:a8:8a:79:5e:8e:2b:5d:77:1f:81:81:
        90:a1:53:70
-----BEGIN CERTIFICATE-----
MIID3TCCAsWgAwIBAgIUIfuoGVhbt3fH3BHPPgRxwkz/NkIwDQYJKoZIhvcNAQEF
BQAwOTELMAkGA1UEBhMCQVUxFzAVBgNVBAoMDkRvZGd5IEJyb3RoZXJzMREwDwYD
VQQDDAhEb2RneSBDQTAeFw0yMzAzMjMyMTI2NDFaFw0yNDAzMjIyMTI2NDFaMFEx
CzAJBgNVBAYTAkFVMRcwFQYDVQQKDA5Eb2RneSBCcm90aGVyczESMBAGA1UEAwwJ
QnJvdGhlciAxMRUwEwYDVQQDDAxib3RoX3V0Y3RpbWUwggEiMA0GCSqGSIb3DQEB
AQUAA4IBDwAwggEKAoIBAQC+lYb6cUxq6lGYUEuZoSxmFfNg8+H/afvOSAEd/uEs
OLDjvY9LSKd+OsZz46u/4dpulvX+w+S0qK28VjTUliV0J8MQ2zUQJRyOS4Gb+0IE
fG894jhsDuQujioYbTDNZyojazfPBZ/Mt1lYf7rECj+MpK3LmJzA8o9pZw/BTjPP
/IVeu17Pk7DP2fRSeYex+E0VaGXVtxkIY39esTStBY9a8OThjyXyXFxhlbBWLTEr
CGV55bE7nT65UkusXcRYZoWNgbMEKPQ/L6ySAWLV/Y4L2gIMesduCRysHLJM11S4
JjOyXxTzsfk9Yk1AmWu254lYl9bUTepLaFLzPKixNYjbAgMBAAGjgcQwgcEwHQYD
VR0OBBYEFKHfM8PPPlNBp2hEzKoZ4YTJDbzGMHQGA1UdIwRtMGuAFLQRM/HX4l73
U54gIhBPhga/H8leoT2kOzA5MQswCQYDVQQGEwJBVTEXMBUGA1UECgwORG9kZ3kg
QnJvdGhlcnMxETAPBgNVBAMMCERvZGd5IENBghQajI6uNcZFl/FpNf4iUSIvXIq1
ojASBgNVHRMBAf8ECDAGAQH/AgEBMAsGA1UdDwQEAwIBBjAJBgNVHRIEAjAAMA0G
CSqGSIb3DQEBBQUAA4IBAQCHtTRCqYJ41Sg/RxZVq0XT7vDdvZhq7ruxm5mRltIv
purBhzd6lVLyb4appWoz+ojshVxqbYUOFz8L9etzBfGbwDENWyYh+xYNPkyEPWGg
hrbAZ0b3GMw2ajn8G8skLFqVhNkBneQFRT70mlWeqzjboRsrnSLfWaScKws7PE+D
dSo9WNXDjw8zdM12KfrZtFBk3KBslmKFD9E25swoS7KKLdWPz+D4AhWq48Z+IzE8
36XS+o6+wG/BPqBbH+ytfOKE9v+7Yz62EPAvIzwf6DiV9p9OqdggWb4d2AckqD1b
cBKGuuZoSIV6rkZrNyI8oKfQqIp5Xo4rXXcfgYGQoVNw
-----END CERTIFICATE-----
