Certificate:
    Data:
        Version: 3 (0x2)
        Serial Number:
            21:fb:a8:19:58:5b:b7:77:c7:dc:11:cf:3e:04:71:c2:4c:ff:36:43
        Signature Algorithm: sha1WithRSAEncryption
        Issuer: C=AU, O=Dodgy Brothers, CN=Dodgy CA
        Validity
            Not Before: Mar 23 21:26:42 2023 GMT
            Not After : Mar 22 21:26:42 2024 GMT
        Subject: C=AU, O=Dodgy Brothers, CN=Brother 1, CN=both_generalizedtime
        Subject Public Key Info:
            Public Key Algorithm: rsaEncryption
                Public-Key: (2048 bit)
                Modulus:
                    00:be:95:86:fa:71:4c:6a:ea:51:98:50:4b:99:a1:
                    2c:66:15:f3:60:f3:e1:ff:69:fb:ce:48:01:1d:fe:
                    e1:2c:38:b0:e3:bd:8f:4b:48:a7:7e:3a:c6:73:e3:
                    ab:bf:e1:da:6e:96:f5:fe:c3:e4:b4:a8:ad:bc:56:
                    34:d4:96:25:74:27:c3:10:db:35:10:25:1c:8e:4b:
                    81:9b:fb:42:04:7c:6f:3d:e2:38:6c:0e:e4:2e:8e:
                    2a:18:6d:30:cd:67:2a:23:6b:37:cf:05:9f:cc:b7:
                    59:58:7f:ba:c4:0a:3f:8c:a4:ad:cb:98:9c:c0:f2:
                    8f:69:67:0f:c1:4e:33:cf:fc:85:5e:bb:5e:cf:93:
                    b0:cf:d9:f4:52:79:87:b1:f8:4d:15:68:65:d5:b7:
                    19:08:63:7f:5e:b1:34:ad:05:8f:5a:f0:e4:e1:8f:
                    25:f2:5c:5c:61:95:b0:56:2d:31:2b:08:65:79:e5:
                    b1:3b:9d:3e:b9:52:4b:ac:5d:c4:58:66:85:8d:81:
                    b3:04:28:f4:3f:2f:ac:92:01:62:d5:fd:8e:0b:da:
                    02:0c:7a:c7:6e:09:1c:ac:1c:b2:4c:d7:54:b8:26:
                    33:b2:5f:14:f3:b1:f9:3d:62:4d:40:99:6b:b6:e7:
                    89:58:97:d6:d4:4d:ea:4b:68:52:f3:3c:a8:b1:35:
                    88:db
                Exponent: 65537 (0x10001)
        X509v3 extensions:
            X509v3 Subject Key Identifier: 
                A1:DF:33:C3:CF:3E:53:41:A7:68:44:CC:AA:19:E1:84:C9:0D:BC:C6
            X509v3 Authority Key Identifier: 
                keyid:B4:11:33:F1:D7:E2:5E:F7:53:9E:20:22:10:4F:86:06:BF:1F:C9:5E
                DirName:/C=AU/O=Dodgy Brothers/CN=Dodgy CA
                serial:1A:8C:8E:AE:35:C6:45:97:F1:69:35:FE:22:51:22:2F:5C:8A:B5:A2
            X509v3 Basic Constraints: critical
                CA:TRUE, pathlen:1
            X509v3 Key Usage: 
                Certificate Sign, CRL Sign
            X509v3 Issuer Alternative Name: 
                <EMPTY>

    Signature Algorithm: sha1WithRSAEncryption
    Signature Value:
        1a:1e:5e:07:9c:57:0b:6e:8e:a4:06:b8:0a:1b:50:22:30:1d:
        6e:68:9e:18:a7:cb:75:36:5b:72:ed:a5:26:cc:e4:d2:89:e8:
        bb:73:9f:34:a9:05:52:f7:97:8b:bd:e6:a7:f9:9e:87:33:b8:
        01:63:c1:1e:b9:c4:4f:4e:6d:7f:4b:f8:9f:e6:74:c1:fa:aa:
        10:7b:e1:f4:f1:b9:da:e1:05:ec:89:54:67:84:28:fc:13:7a:
        ed:c9:a0:7a:5f:ef:0a:43:60:0a:ce:40:e6:ea:65:85:8c:4e:
        ff:b5:e5:da:22:8c:30:e2:56:95:35:aa:df:3b:8b:3f:6a:b6:
        6e:e5:bc:27:26:8c:64:6d:de:9a:f4:f5:d4:10:16:f9:12:0e:
        7c:70:9d:7e:0b:2e:b1:c2:5a:ce:5d:21:7a:a0:1f:88:6b:f4:
        b5:8c:1d:2d:95:a8:73:0f:b7:7d:3f:61:b5:cc:34:f6:3d:27:
        41:43:ee:bd:5b:da:be:7c:0d:47:9a:d9:cd:0d:79:75:55:41:
        70:b4:c5:dc:3d:ea:21:2b:b5:31:79:05:1f:c4:50:32:6d:03:
        36:38:93:fd:08:ba:e4:ba:1b:7c:48:ee:9b:cf:55:21:0b:e4:
        07:61:44:37:f1:de:4d:55:c8:71:14:ef:d4:4d:83:f3:56:ff:
        99:d0:dd:31
-----BEGIN CERTIFICATE-----
MIID5TCCAs2gAwIBAgIUIfuoGVhbt3fH3BHPPgRxwkz/NkMwDQYJKoZIhvcNAQEF
BQAwOTELMAkGA1UEBhMCQVUxFzAVBgNVBAoMDkRvZGd5IEJyb3RoZXJzMREwDwYD
VQQDDAhEb2RneSBDQTAeFw0yMzAzMjMyMTI2NDJaFw0yNDAzMjIyMTI2NDJaMFkx
CzAJBgNVBAYTAkFVMRcwFQYDVQQKDA5Eb2RneSBCcm90aGVyczESMBAGA1UEAwwJ
QnJvdGhlciAxMR0wGwYDVQQDDBRib3RoX2dlbmVyYWxpemVkdGltZTCCASIwDQYJ
KoZIhvcNAQEBBQADggEPADCCAQoCggEBAL6VhvpxTGrqUZhQS5mhLGYV82Dz4f9p
+85IAR3+4Sw4sOO9j0tIp346xnPjq7/h2m6W9f7D5LSorbxWNNSWJXQnwxDbNRAl
HI5LgZv7QgR8bz3iOGwO5C6OKhhtMM1nKiNrN88Fn8y3WVh/usQKP4ykrcuYnMDy
j2lnD8FOM8/8hV67Xs+TsM/Z9FJ5h7H4TRVoZdW3GQhjf16xNK0Fj1rw5OGPJfJc
XGGVsFYtMSsIZXnlsTudPrlSS6xdxFhmhY2BswQo9D8vrJIBYtX9jgvaAgx6x24J
HKwcskzXVLgmM7JfFPOx+T1iTUCZa7bniViX1tRN6ktoUvM8qLE1iNsCAwEAAaOB
xDCBwTAdBgNVHQ4EFgQUod8zw88+U0GnaETMqhnhhMkNvMYwdAYDVR0jBG0wa4AU
tBEz8dfiXvdTniAiEE+GBr8fyV6hPaQ7MDkxCzAJBgNVBAYTAkFVMRcwFQYDVQQK
DA5Eb2RneSBCcm90aGVyczERMA8GA1UEAwwIRG9kZ3kgQ0GCFBqMjq41xkWX8Wk1
/iJRIi9cirWiMBIGA1UdEwEB/wQIMAYBAf8CAQEwCwYDVR0PBAQDAgEGMAkGA1Ud
EgQCMAAwDQYJKoZIhvcNAQEFBQADggEBABoeXgecVwtujqQGuAobUCIwHW5onhin
y3U2W3LtpSbM5NKJ6LtznzSpBVL3l4u95qf5noczuAFjwR65xE9ObX9L+J/mdMH6
qhB74fTxudrhBeyJVGeEKPwTeu3JoHpf7wpDYArOQObqZYWMTv+15doijDDiVpU1
qt87iz9qtm7lvCcmjGRt3pr09dQQFvkSDnxwnX4LLrHCWs5dIXqgH4hr9LWMHS2V
qHMPt30/YbXMNPY9J0FD7r1b2r58DUea2c0NeXVVQXC0xdw96iErtTF5BR/EUDJt
AzY4k/0IuuS6G3xI7pvPVSEL5AdhRDfx3k1VyHEU79RNg/NW/5nQ3TE=
-----END CERTIFICATE-----
