Certificate:
    Data:
        Version: 3 (0x2)
        Serial Number:
            21:fb:a8:19:58:5b:b7:77:c7:dc:11:cf:3e:04:71:c2:4c:ff:36:3e
        Signature Algorithm: sha1WithRSAEncryption
        Issuer: C=AU, O=Dodgy Brothers, CN=Dodgy CA
        Validity
            Not Before: Mar 23 21:26:39 2023 GMT
            Not After : Mar 22 21:26:39 2024 GMT
        Subject: C=AU, O=Dodgy Brothers, CN=Brother 1, CN=lastupdate_generalizedtime
        Subject Public Key Info:
            Public Key Algorithm: rsaEncryption
                Public-Key: (2048 bit)
                Modulus:
                    00:be:95:86:fa:71:4c:6a:ea:51:98:50:4b:99:a1:
                    2c:66:15:f3:60:f3:e1:ff:69:fb:ce:48:01:1d:fe:
                    e1:2c:38:b0:e3:bd:8f:4b:48:a7:7e:3a:c6:73:e3:
                    ab:bf:e1:da:6e:96:f5:fe:c3:e4:b4:a8:ad:bc:56:
                    34:d4:96:25:74:27:c3:10:db:35:10:25:1c:8e:4b:
                    81:9b:fb:42:04:7c:6f:3d:e2:38:6c:0e:e4:2e:8e:
                    2a:18:6d:30:cd:67:2a:23:6b:37:cf:05:9f:cc:b7:
                    59:58:7f:ba:c4:0a:3f:8c:a4:ad:cb:98:9c:c0:f2:
                    8f:69:67:0f:c1:4e:33:cf:fc:85:5e:bb:5e:cf:93:
                    b0:cf:d9:f4:52:79:87:b1:f8:4d:15:68:65:d5:b7:
                    19:08:63:7f:5e:b1:34:ad:05:8f:5a:f0:e4:e1:8f:
                    25:f2:5c:5c:61:95:b0:56:2d:31:2b:08:65:79:e5:
                    b1:3b:9d:3e:b9:52:4b:ac:5d:c4:58:66:85:8d:81:
                    b3:04:28:f4:3f:2f:ac:92:01:62:d5:fd:8e:0b:da:
                    02:0c:7a:c7:6e:09:1c:ac:1c:b2:4c:d7:54:b8:26:
                    33:b2:5f:14:f3:b1:f9:3d:62:4d:40:99:6b:b6:e7:
                    89:58:97:d6:d4:4d:ea:4b:68:52:f3:3c:a8:b1:35:
                    88:db
                Exponent: 65537 (0x10001)
        X509v3 extensions:
            X509v3 Subject Key Identifier: 
                A1:DF:33:C3:CF:3E:53:41:A7:68:44:CC:AA:19:E1:84:C9:0D:BC:C6
            X509v3 Authority Key Identifier: 
                keyid:B4:11:33:F1:D7:E2:5E:F7:53:9E:20:22:10:4F:86:06:BF:1F:C9:5E
                DirName:/C=AU/O=Dodgy Brothers/CN=Dodgy CA
                serial:1A:8C:8E:AE:35:C6:45:97:F1:69:35:FE:22:51:22:2F:5C:8A:B5:A2
            X509v3 Basic Constraints: critical
                CA:TRUE, pathlen:1
            X509v3 Key Usage: 
                Certificate Sign, CRL Sign
            X509v3 Issuer Alternative Name: 
                <EMPTY>

    Signature Algorithm: sha1WithRSAEncryption
    Signature Value:
        50:3c:9e:ee:a0:ea:b9:fe:d1:5b:cd:6b:f7:4b:00:b0:f3:88:
        c9:41:47:12:da:2d:87:e8:59:a9:5d:bc:37:45:d0:a1:8c:a7:
        c9:42:5d:9b:d8:af:8f:48:c5:b2:95:6d:d3:83:f0:83:7c:cd:
        0b:b9:11:3a:93:15:64:56:90:07:f8:d6:c6:ba:60:21:9c:9a:
        35:f4:79:15:91:b9:4c:06:98:ab:a7:4a:cb:97:8b:bc:21:b7:
        a6:ac:94:76:3b:a5:18:43:5b:39:ec:de:96:d9:10:9d:12:ce:
        1c:8b:8f:4a:a0:65:ee:9f:69:a5:3e:43:5e:db:a2:dc:f1:62:
        1a:fb:4d:6b:2c:0c:22:64:f3:b0:36:03:2f:e8:e1:56:0b:80:
        40:1a:25:aa:63:a0:7f:c8:70:6d:ed:8f:fe:fd:9d:72:27:84:
        a3:cf:b5:0e:bc:68:1e:01:6e:44:db:64:c6:fb:82:38:2c:20:
        ab:c2:20:d8:bc:f6:ba:57:87:eb:8a:9b:e5:2a:12:d4:52:5e:
        20:b2:85:a5:7f:59:f7:0d:eb:ce:39:1d:a9:0a:43:28:80:98:
        ec:73:c4:7e:8a:71:94:29:64:01:ca:47:c4:f8:96:46:f5:fc:
        eb:09:c1:b7:b8:14:71:63:21:2d:41:0f:ee:8f:6a:b0:1f:e6:
        5d:bb:ad:01
-----BEGIN CERTIFICATE-----
MIID6zCCAtOgAwIBAgIUIfuoGVhbt3fH3BHPPgRxwkz/Nj4wDQYJKoZIhvcNAQEF
BQAwOTELMAkGA1UEBhMCQVUxFzAVBgNVBAoMDkRvZGd5IEJyb3RoZXJzMREwDwYD
VQQDDAhEb2RneSBDQTAeFw0yMzAzMjMyMTI2MzlaFw0yNDAzMjIyMTI2MzlaMF8x
CzAJBgNVBAYTAkFVMRcwFQYDVQQKDA5Eb2RneSBCcm90aGVyczESMBAGA1UEAwwJ
QnJvdGhlciAxMSMwIQYDVQQDDBpsYXN0dXBkYXRlX2dlbmVyYWxpemVkdGltZTCC
ASIwDQYJKoZIhvcNAQEBBQADggEPADCCAQoCggEBAL6VhvpxTGrqUZhQS5mhLGYV
82Dz4f9p+85IAR3+4Sw4sOO9j0tIp346xnPjq7/h2m6W9f7D5LSorbxWNNSWJXQn
wxDbNRAlHI5LgZv7QgR8bz3iOGwO5C6OKhhtMM1nKiNrN88Fn8y3WVh/usQKP4yk
rcuYnMDyj2lnD8FOM8/8hV67Xs+TsM/Z9FJ5h7H4TRVoZdW3GQhjf16xNK0Fj1rw
5OGPJfJcXGGVsFYtMSsIZXnlsTudPrlSS6xdxFhmhY2BswQo9D8vrJIBYtX9jgva
Agx6x24JHKwcskzXVLgmM7JfFPOx+T1iTUCZa7bniViX1tRN6ktoUvM8qLE1iNsC
AwEAAaOBxDCBwTAdBgNVHQ4EFgQUod8zw88+U0GnaETMqhnhhMkNvMYwdAYDVR0j
BG0wa4AUtBEz8dfiXvdTniAiEE+GBr8fyV6hPaQ7MDkxCzAJBgNVBAYTAkFVMRcw
FQYDVQQKDA5Eb2RneSBCcm90aGVyczERMA8GA1UEAwwIRG9kZ3kgQ0GCFBqMjq41
xkWX8Wk1/iJRIi9cirWiMBIGA1UdEwEB/wQIMAYBAf8CAQEwCwYDVR0PBAQDAgEG
MAkGA1UdEgQCMAAwDQYJKoZIhvcNAQEFBQADggEBAFA8nu6g6rn+0VvNa/dLALDz
iMlBRxLaLYfoWaldvDdF0KGMp8lCXZvYr49IxbKVbdOD8IN8zQu5ETqTFWRWkAf4
1sa6YCGcmjX0eRWRuUwGmKunSsuXi7wht6aslHY7pRhDWzns3pbZEJ0SzhyLj0qg
Ze6faaU+Q17botzxYhr7TWssDCJk87A2Ay/o4VYLgEAaJapjoH/IcG3tj/79nXIn
hKPPtQ68aB4BbkTbZMb7gjgsIKvCINi89rpXh+uKm+UqEtRSXiCyhaV/WfcN6845
HakKQyiAmOxzxH6KcZQpZAHKR8T4lkb1/OsJwbe4FHFjIS1BD+6ParAf5l27rQE=
-----END CERTIFICATE-----
