Certificate:
    Data:
        Version: 3 (0x2)
        Serial Number:
            21:fb:a8:19:58:5b:b7:77:c7:dc:11:cf:3e:04:71:c2:4c:ff:36:3d
        Signature Algorithm: sha1WithRSAEncryption
        Issuer: C=AU, O=Dodgy Brothers, CN=Dodgy CA
        Validity
            Not Before: Mar 23 21:26:39 2023 GMT
            Not After : Mar 22 21:26:39 2024 GMT
        Subject: C=AU, O=Dodgy Brothers, CN=Brother 1, CN=lastupdate_utctime
        Subject Public Key Info:
            Public Key Algorithm: rsaEncryption
                Public-Key: (2048 bit)
                Modulus:
                    00:be:95:86:fa:71:4c:6a:ea:51:98:50:4b:99:a1:
                    2c:66:15:f3:60:f3:e1:ff:69:fb:ce:48:01:1d:fe:
                    e1:2c:38:b0:e3:bd:8f:4b:48:a7:7e:3a:c6:73:e3:
                    ab:bf:e1:da:6e:96:f5:fe:c3:e4:b4:a8:ad:bc:56:
                    34:d4:96:25:74:27:c3:10:db:35:10:25:1c:8e:4b:
                    81:9b:fb:42:04:7c:6f:3d:e2:38:6c:0e:e4:2e:8e:
                    2a:18:6d:30:cd:67:2a:23:6b:37:cf:05:9f:cc:b7:
                    59:58:7f:ba:c4:0a:3f:8c:a4:ad:cb:98:9c:c0:f2:
                    8f:69:67:0f:c1:4e:33:cf:fc:85:5e:bb:5e:cf:93:
                    b0:cf:d9:f4:52:79:87:b1:f8:4d:15:68:65:d5:b7:
                    19:08:63:7f:5e:b1:34:ad:05:8f:5a:f0:e4:e1:8f:
                    25:f2:5c:5c:61:95:b0:56:2d:31:2b:08:65:79:e5:
                    b1:3b:9d:3e:b9:52:4b:ac:5d:c4:58:66:85:8d:81:
                    b3:04:28:f4:3f:2f:ac:92:01:62:d5:fd:8e:0b:da:
                    02:0c:7a:c7:6e:09:1c:ac:1c:b2:4c:d7:54:b8:26:
                    33:b2:5f:14:f3:b1:f9:3d:62:4d:40:99:6b:b6:e7:
                    89:58:97:d6:d4:4d:ea:4b:68:52:f3:3c:a8:b1:35:
                    88:db
                Exponent: 65537 (0x10001)
        X509v3 extensions:
            X509v3 Subject Key Identifier: 
                A1:DF:33:C3:CF:3E:53:41:A7:68:44:CC:AA:19:E1:84:C9:0D:BC:C6
            X509v3 Authority Key Identifier: 
                keyid:B4:11:33:F1:D7:E2:5E:F7:53:9E:20:22:10:4F:86:06:BF:1F:C9:5E
                DirName:/C=AU/O=Dodgy Brothers/CN=Dodgy CA
                serial:1A:8C:8E:AE:35:C6:45:97:F1:69:35:FE:22:51:22:2F:5C:8A:B5:A2
            X509v3 Basic Constraints: critical
                CA:TRUE, pathlen:1
            X509v3 Key Usage: 
                Certificate Sign, CRL Sign
            X509v3 Issuer Alternative Name: 
                <EMPTY>

    Signature Algorithm: sha1WithRSAEncryption
    Signature Value:
        23:82:5c:bd:fa:c4:c6:86:75:3c:dc:f1:6e:4e:80:00:4a:85:
        68:a4:30:f3:a6:22:ce:8f:05:8a:80:7f:78:be:c0:2b:3a:84:
        90:af:28:3a:00:81:58:dd:c1:cc:f4:e5:f9:49:2f:8b:39:3a:
        b3:05:03:43:4e:45:79:42:d6:ea:9f:f0:28:af:69:1a:4d:4c:
        bf:01:f5:a1:f3:db:3b:21:59:15:e7:98:39:be:e5:07:4d:bd:
        6a:e6:39:9a:b0:65:d1:e8:2a:80:e6:3c:45:62:7f:13:74:21:
        79:fb:33:2d:81:cf:da:30:4a:65:48:91:d0:ad:03:14:49:2b:
        bf:04:f9:71:58:03:f9:64:e4:ba:51:64:f0:d4:e5:6a:d1:26:
        1a:3b:8a:60:35:e8:42:d7:31:1e:3f:72:58:00:d5:21:99:75:
        ee:e5:77:25:de:c7:49:18:45:21:75:70:7b:eb:d2:38:47:ba:
        ad:c9:fd:02:b7:b1:7a:35:77:c4:7b:e2:4c:ed:65:00:3b:e3:
        85:6c:83:c2:44:06:58:db:61:0b:c3:f7:35:1a:f1:b7:02:a8:
        57:db:b0:fd:fc:9f:fc:86:90:e3:07:36:e8:cc:19:16:29:96:
        12:83:e6:c9:39:c5:07:c3:4e:52:69:bb:db:ce:57:bc:68:ab:
        87:25:59:ac
-----BEGIN CERTIFICATE-----
MIID4zCCAsugAwIBAgIUIfuoGVhbt3fH3BHPPgRxwkz/Nj0wDQYJKoZIhvcNAQEF
BQAwOTELMAkGA1UEBhMCQVUxFzAVBgNVBAoMDkRvZGd5IEJyb3RoZXJzMREwDwYD
VQQDDAhEb2RneSBDQTAeFw0yMzAzMjMyMTI2MzlaFw0yNDAzMjIyMTI2MzlaMFcx
CzAJBgNVBAYTAkFVMRcwFQYDVQQKDA5Eb2RneSBCcm90aGVyczESMBAGA1UEAwwJ
QnJvdGhlciAxMRswGQYDVQQDDBJsYXN0dXBkYXRlX3V0Y3RpbWUwggEiMA0GCSqG
SIb3DQEBAQUAA4IBDwAwggEKAoIBAQC+lYb6cUxq6lGYUEuZoSxmFfNg8+H/afvO
SAEd/uEsOLDjvY9LSKd+OsZz46u/4dpulvX+w+S0qK28VjTUliV0J8MQ2zUQJRyO
S4Gb+0IEfG894jhsDuQujioYbTDNZyojazfPBZ/Mt1lYf7rECj+MpK3LmJzA8o9p
Zw/BTjPP/IVeu17Pk7DP2fRSeYex+E0VaGXVtxkIY39esTStBY9a8OThjyXyXFxh
lbBWLTErCGV55bE7nT65UkusXcRYZoWNgbMEKPQ/L6ySAWLV/Y4L2gIMesduCRys
HLJM11S4JjOyXxTzsfk9Yk1AmWu254lYl9bUTepLaFLzPKixNYjbAgMBAAGjgcQw
gcEwHQYDVR0OBBYEFKHfM8PPPlNBp2hEzKoZ4YTJDbzGMHQGA1UdIwRtMGuAFLQR
M/HX4l73U54gIhBPhga/H8leoT2kOzA5MQswCQYDVQQGEwJBVTEXMBUGA1UECgwO
RG9kZ3kgQnJvdGhlcnMxETAPBgNVBAMMCERvZGd5IENBghQajI6uNcZFl/FpNf4i
USIvXIq1ojASBgNVHRMBAf8ECDAGAQH/AgEBMAsGA1UdDwQEAwIBBjAJBgNVHRIE
AjAAMA0GCSqGSIb3DQEBBQUAA4IBAQAjgly9+sTGhnU83PFuToAASoVopDDzpiLO
jwWKgH94vsArOoSQryg6AIFY3cHM9OX5SS+LOTqzBQNDTkV5Qtbqn/Aor2kaTUy/
AfWh89s7IVkV55g5vuUHTb1q5jmasGXR6CqA5jxFYn8TdCF5+zMtgc/aMEplSJHQ
rQMUSSu/BPlxWAP5ZOS6UWTw1OVq0SYaO4pgNehC1zEeP3JYANUhmXXu5Xcl3sdJ
GEUhdXB769I4R7qtyf0Ct7F6NXfEe+JM7WUAO+OFbIPCRAZY22ELw/c1GvG3AqhX
27D9/J/8hpDjBzbozBkWKZYSg+bJOcUHw05Sabvbzle8aKuHJVms
-----END CERTIFICATE-----
