Certificate:
    Data:
        Version: 3 (0x2)
        Serial Number:
            21:fb:a8:19:58:5b:b7:77:c7:dc:11:cf:3e:04:71:c2:4c:ff:36:3c
        Signature Algorithm: sha1WithRSAEncryption
        Issuer: C=AU, O=Dodgy Brothers, CN=Dodgy CA
        Validity
            Not Before: Mar 23 21:26:39 2023 GMT
            Not After : Mar 22 21:26:39 2024 GMT
        Subject: C=AU, O=Dodgy Brothers, CN=Brother 1, CN=lastupdate_invalid
        Subject Public Key Info:
            Public Key Algorithm: rsaEncryption
                Public-Key: (2048 bit)
                Modulus:
                    00:be:95:86:fa:71:4c:6a:ea:51:98:50:4b:99:a1:
                    2c:66:15:f3:60:f3:e1:ff:69:fb:ce:48:01:1d:fe:
                    e1:2c:38:b0:e3:bd:8f:4b:48:a7:7e:3a:c6:73:e3:
                    ab:bf:e1:da:6e:96:f5:fe:c3:e4:b4:a8:ad:bc:56:
                    34:d4:96:25:74:27:c3:10:db:35:10:25:1c:8e:4b:
                    81:9b:fb:42:04:7c:6f:3d:e2:38:6c:0e:e4:2e:8e:
                    2a:18:6d:30:cd:67:2a:23:6b:37:cf:05:9f:cc:b7:
                    59:58:7f:ba:c4:0a:3f:8c:a4:ad:cb:98:9c:c0:f2:
                    8f:69:67:0f:c1:4e:33:cf:fc:85:5e:bb:5e:cf:93:
                    b0:cf:d9:f4:52:79:87:b1:f8:4d:15:68:65:d5:b7:
                    19:08:63:7f:5e:b1:34:ad:05:8f:5a:f0:e4:e1:8f:
                    25:f2:5c:5c:61:95:b0:56:2d:31:2b:08:65:79:e5:
                    b1:3b:9d:3e:b9:52:4b:ac:5d:c4:58:66:85:8d:81:
                    b3:04:28:f4:3f:2f:ac:92:01:62:d5:fd:8e:0b:da:
                    02:0c:7a:c7:6e:09:1c:ac:1c:b2:4c:d7:54:b8:26:
                    33:b2:5f:14:f3:b1:f9:3d:62:4d:40:99:6b:b6:e7:
                    89:58:97:d6:d4:4d:ea:4b:68:52:f3:3c:a8:b1:35:
                    88:db
                Exponent: 65537 (0x10001)
        X509v3 extensions:
            X509v3 Subject Key Identifier: 
                A1:DF:33:C3:CF:3E:53:41:A7:68:44:CC:AA:19:E1:84:C9:0D:BC:C6
            X509v3 Authority Key Identifier: 
                keyid:B4:11:33:F1:D7:E2:5E:F7:53:9E:20:22:10:4F:86:06:BF:1F:C9:5E
                DirName:/C=AU/O=Dodgy Brothers/CN=Dodgy CA
                serial:1A:8C:8E:AE:35:C6:45:97:F1:69:35:FE:22:51:22:2F:5C:8A:B5:A2
            X509v3 Basic Constraints: critical
                CA:TRUE, pathlen:1
            X509v3 Key Usage: 
                Certificate Sign, CRL Sign
            X509v3 Issuer Alternative Name: 
                <EMPTY>

    Signature Algorithm: sha1WithRSAEncryption
    Signature Value:
        23:a2:78:c3:9f:19:83:47:fd:35:8e:2f:c7:fd:01:98:65:f6:
        82:f4:84:d8:21:6a:3e:da:4e:1d:0e:14:bd:69:14:5a:49:32:
        aa:07:77:20:73:58:8c:2b:97:93:53:f3:7b:99:a9:eb:b7:7b:
        e4:20:9e:7c:ea:b5:7c:79:39:dc:7c:65:69:1a:25:b5:02:e3:
        d4:22:26:cd:24:4c:f7:e6:13:2e:d9:5d:d3:f5:76:7d:1f:59:
        62:76:14:5a:5e:a4:bf:2b:5b:5a:42:69:12:85:a3:00:0a:1b:
        ec:5f:12:25:f8:1b:b8:f8:7a:ee:27:f5:3d:8b:54:3c:46:bd:
        d3:0b:22:29:0f:d3:c4:76:d5:cc:47:71:39:9d:e8:15:f7:39:
        12:d0:97:b9:04:e4:5e:40:a1:05:62:eb:80:23:83:e1:63:db:
        07:5c:19:1e:b6:97:8a:f9:94:85:6a:c2:90:f0:bc:1f:eb:70:
        47:d8:42:17:6f:9f:01:00:9c:f0:45:e9:29:c7:4f:8f:d4:b2:
        20:b4:43:b2:bb:b7:28:b2:83:5e:5a:76:f9:93:9f:29:0e:a3:
        27:10:2d:19:b2:c7:69:86:fd:d5:29:87:1c:e7:49:47:52:55:
        dc:0e:13:70:e9:c2:e8:0f:8f:fa:aa:f1:bc:22:78:47:8e:b8:
        40:5a:5d:9d
-----BEGIN CERTIFICATE-----
MIID4zCCAsugAwIBAgIUIfuoGVhbt3fH3BHPPgRxwkz/NjwwDQYJKoZIhvcNAQEF
BQAwOTELMAkGA1UEBhMCQVUxFzAVBgNVBAoMDkRvZGd5IEJyb3RoZXJzMREwDwYD
VQQDDAhEb2RneSBDQTAeFw0yMzAzMjMyMTI2MzlaFw0yNDAzMjIyMTI2MzlaMFcx
CzAJBgNVBAYTAkFVMRcwFQYDVQQKDA5Eb2RneSBCcm90aGVyczESMBAGA1UEAwwJ
QnJvdGhlciAxMRswGQYDVQQDDBJsYXN0dXBkYXRlX2ludmFsaWQwggEiMA0GCSqG
SIb3DQEBAQUAA4IBDwAwggEKAoIBAQC+lYb6cUxq6lGYUEuZoSxmFfNg8+H/afvO
SAEd/uEsOLDjvY9LSKd+OsZz46u/4dpulvX+w+S0qK28VjTUliV0J8MQ2zUQJRyO
S4Gb+0IEfG894jhsDuQujioYbTDNZyojazfPBZ/Mt1lYf7rECj+MpK3LmJzA8o9p
Zw/BTjPP/IVeu17Pk7DP2fRSeYex+E0VaGXVtxkIY39esTStBY9a8OThjyXyXFxh
lbBWLTErCGV55bE7nT65UkusXcRYZoWNgbMEKPQ/L6ySAWLV/Y4L2gIMesduCRys
HLJM11S4JjOyXxTzsfk9Yk1AmWu254lYl9bUTepLaFLzPKixNYjbAgMBAAGjgcQw
gcEwHQYDVR0OBBYEFKHfM8PPPlNBp2hEzKoZ4YTJDbzGMHQGA1UdIwRtMGuAFLQR
M/HX4l73U54gIhBPhga/H8leoT2kOzA5MQswCQYDVQQGEwJBVTEXMBUGA1UECgwO
RG9kZ3kgQnJvdGhlcnMxETAPBgNVBAMMCERvZGd5IENBghQajI6uNcZFl/FpNf4i
USIvXIq1ojASBgNVHRMBAf8ECDAGAQH/AgEBMAsGA1UdDwQEAwIBBjAJBgNVHRIE
AjAAMA0GCSqGSIb3DQEBBQUAA4IBAQAjonjDnxmDR/01ji/H/QGYZfaC9ITYIWo+
2k4dDhS9aRRaSTKqB3cgc1iMK5eTU/N7manrt3vkIJ586rV8eTncfGVpGiW1AuPU
IibNJEz35hMu2V3T9XZ9H1lidhRaXqS/K1taQmkShaMAChvsXxIl+Bu4+HruJ/U9
i1Q8Rr3TCyIpD9PEdtXMR3E5negV9zkS0Je5BOReQKEFYuuAI4PhY9sHXBketpeK
+ZSFasKQ8Lwf63BH2EIXb58BAJzwRekpx0+P1LIgtEOyu7cosoNeWnb5k58pDqMn
EC0Zssdphv3VKYcc50lHUlXcDhNw6cLoD4/6qvG8InhHjrhAWl2d
-----END CERTIFICATE-----
