Certificate:
    Data:
        Version: 3 (0x2)
        Serial Number:
            21:fb:a8:19:58:5b:b7:77:c7:dc:11:cf:3e:04:71:c2:4c:ff:36:3f
        Signature Algorithm: sha1WithRSAEncryption
        Issuer: C=AU, O=Dodgy Brothers, CN=Dodgy CA
        Validity
            Not Before: Mar 23 21:26:40 2023 GMT
            Not After : Mar 22 21:26:40 2024 GMT
        Subject: C=AU, O=Dodgy Brothers, CN=Brother 1, CN=nextupdate_invalid
        Subject Public Key Info:
            Public Key Algorithm: rsaEncryption
                Public-Key: (2048 bit)
                Modulus:
                    00:be:95:86:fa:71:4c:6a:ea:51:98:50:4b:99:a1:
                    2c:66:15:f3:60:f3:e1:ff:69:fb:ce:48:01:1d:fe:
                    e1:2c:38:b0:e3:bd:8f:4b:48:a7:7e:3a:c6:73:e3:
                    ab:bf:e1:da:6e:96:f5:fe:c3:e4:b4:a8:ad:bc:56:
                    34:d4:96:25:74:27:c3:10:db:35:10:25:1c:8e:4b:
                    81:9b:fb:42:04:7c:6f:3d:e2:38:6c:0e:e4:2e:8e:
                    2a:18:6d:30:cd:67:2a:23:6b:37:cf:05:9f:cc:b7:
                    59:58:7f:ba:c4:0a:3f:8c:a4:ad:cb:98:9c:c0:f2:
                    8f:69:67:0f:c1:4e:33:cf:fc:85:5e:bb:5e:cf:93:
                    b0:cf:d9:f4:52:79:87:b1:f8:4d:15:68:65:d5:b7:
                    19:08:63:7f:5e:b1:34:ad:05:8f:5a:f0:e4:e1:8f:
                    25:f2:5c:5c:61:95:b0:56:2d:31:2b:08:65:79:e5:
                    b1:3b:9d:3e:b9:52:4b:ac:5d:c4:58:66:85:8d:81:
                    b3:04:28:f4:3f:2f:ac:92:01:62:d5:fd:8e:0b:da:
                    02:0c:7a:c7:6e:09:1c:ac:1c:b2:4c:d7:54:b8:26:
                    33:b2:5f:14:f3:b1:f9:3d:62:4d:40:99:6b:b6:e7:
                    89:58:97:d6:d4:4d:ea:4b:68:52:f3:3c:a8:b1:35:
                    88:db
                Exponent: 65537 (0x10001)
        X509v3 extensions:
            X509v3 Subject Key Identifier: 
                A1:DF:33:C3:CF:3E:53:41:A7:68:44:CC:AA:19:E1:84:C9:0D:BC:C6
            X509v3 Authority Key Identifier: 
                keyid:B4:11:33:F1:D7:E2:5E:F7:53:9E:20:22:10:4F:86:06:BF:1F:C9:5E
                DirName:/C=AU/O=Dodgy Brothers/CN=Dodgy CA
                serial:1A:8C:8E:AE:35:C6:45:97:F1:69:35:FE:22:51:22:2F:5C:8A:B5:A2
            X509v3 Basic Constraints: critical
                CA:TRUE, pathlen:1
            X509v3 Key Usage: 
                Certificate Sign, CRL Sign
            X509v3 Issuer Alternative Name: 
                <EMPTY>

    Signature Algorithm: sha1WithRSAEncryption
    Signature Value:
        55:f7:12:05:7f:6d:8e:ab:f8:fd:3d:f4:b6:63:34:b0:56:6e:
        84:3c:f1:e7:9a:96:e0:b8:92:6f:81:ba:c5:da:1b:96:72:d4:
        c7:5d:04:fb:ee:23:55:8b:54:e5:26:e8:86:08:f9:63:c8:5a:
        b5:32:b7:65:c8:53:3e:67:f3:6f:15:59:be:ff:f9:05:c3:75:
        5b:e2:b0:47:55:48:bf:75:15:8b:7b:2e:6f:fb:ec:f6:60:7e:
        8b:3a:29:cf:a8:f0:65:50:c4:f1:b9:ae:89:0b:28:28:90:ac:
        8c:bd:c1:d4:81:d0:bb:09:4d:9b:97:22:f0:1c:11:1d:55:d0:
        e2:82:cb:d4:9a:fb:69:a4:ac:c2:f3:d9:b9:ba:62:fd:75:e9:
        0f:8f:55:d6:64:12:3e:b4:be:21:d5:fa:b5:ef:51:6b:5b:df:
        3c:48:a8:80:7d:1e:3e:bc:a0:95:c4:3f:51:fa:5b:43:e1:e0:
        b6:d9:ca:64:0c:ea:45:a7:94:8f:1f:5e:39:e9:e9:53:d3:d2:
        39:ae:3c:4c:92:52:94:62:05:9a:80:2a:b3:26:bf:af:d1:e9:
        62:79:b3:6d:9d:28:97:10:77:32:73:70:d4:1f:4d:85:96:b1:
        0b:c9:07:fc:f5:70:3f:66:6b:c8:e3:81:81:a4:6b:83:ab:9d:
        ae:e3:56:b7
-----BEGIN CERTIFICATE-----
MIID4zCCAsugAwIBAgIUIfuoGVhbt3fH3BHPPgRxwkz/Nj8wDQYJKoZIhvcNAQEF
BQAwOTELMAkGA1UEBhMCQVUxFzAVBgNVBAoMDkRvZGd5IEJyb3RoZXJzMREwDwYD
VQQDDAhEb2RneSBDQTAeFw0yMzAzMjMyMTI2NDBaFw0yNDAzMjIyMTI2NDBaMFcx
CzAJBgNVBAYTAkFVMRcwFQYDVQQKDA5Eb2RneSBCcm90aGVyczESMBAGA1UEAwwJ
QnJvdGhlciAxMRswGQYDVQQDDBJuZXh0dXBkYXRlX2ludmFsaWQwggEiMA0GCSqG
SIb3DQEBAQUAA4IBDwAwggEKAoIBAQC+lYb6cUxq6lGYUEuZoSxmFfNg8+H/afvO
SAEd/uEsOLDjvY9LSKd+OsZz46u/4dpulvX+w+S0qK28VjTUliV0J8MQ2zUQJRyO
S4Gb+0IEfG894jhsDuQujioYbTDNZyojazfPBZ/Mt1lYf7rECj+MpK3LmJzA8o9p
Zw/BTjPP/IVeu17Pk7DP2fRSeYex+E0VaGXVtxkIY39esTStBY9a8OThjyXyXFxh
lbBWLTErCGV55bE7nT65UkusXcRYZoWNgbMEKPQ/L6ySAWLV/Y4L2gIMesduCRys
HLJM11S4JjOyXxTzsfk9Yk1AmWu254lYl9bUTepLaFLzPKixNYjbAgMBAAGjgcQw
gcEwHQYDVR0OBBYEFKHfM8PPPlNBp2hEzKoZ4YTJDbzGMHQGA1UdIwRtMGuAFLQR
M/HX4l73U54gIhBPhga/H8leoT2kOzA5MQswCQYDVQQGEwJBVTEXMBUGA1UECgwO
RG9kZ3kgQnJvdGhlcnMxETAPBgNVBAMMCERvZGd5IENBghQajI6uNcZFl/FpNf4i
USIvXIq1ojASBgNVHRMBAf8ECDAGAQH/AgEBMAsGA1UdDwQEAwIBBjAJBgNVHRIE
AjAAMA0GCSqGSIb3DQEBBQUAA4IBAQBV9xIFf22Oq/j9PfS2YzSwVm6EPPHnmpbg
uJJvgbrF2huWctTHXQT77iNVi1TlJuiGCPljyFq1MrdlyFM+Z/NvFVm+//kFw3Vb
4rBHVUi/dRWLey5v++z2YH6LOinPqPBlUMTxua6JCygokKyMvcHUgdC7CU2blyLw
HBEdVdDigsvUmvtppKzC89m5umL9dekPj1XWZBI+tL4h1fq171FrW988SKiAfR4+
vKCVxD9R+ltD4eC22cpkDOpFp5SPH1456elT09I5rjxMklKUYgWagCqzJr+v0eli
ebNtnSiXEHcyc3DUH02FlrELyQf89XA/ZmvI44GBpGuDq52u41a3
-----END CERTIFICATE-----
