Certificate:
    Data:
        Version: 3 (0x2)
        Serial Number:
            21:fb:a8:19:58:5b:b7:77:c7:dc:11:cf:3e:04:71:c2:4c:ff:36:41
        Signature Algorithm: sha1WithRSAEncryption
        Issuer: C=AU, O=Dodgy Brothers, CN=Dodgy CA
        Validity
            Not Before: Mar 23 21:26:41 2023 GMT
            Not After : Mar 22 21:26:41 2024 GMT
        Subject: C=AU, O=Dodgy Brothers, CN=Brother 1, CN=nextupdate_generalizedtime
        Subject Public Key Info:
            Public Key Algorithm: rsaEncryption
                Public-Key: (2048 bit)
                Modulus:
                    00:be:95:86:fa:71:4c:6a:ea:51:98:50:4b:99:a1:
                    2c:66:15:f3:60:f3:e1:ff:69:fb:ce:48:01:1d:fe:
                    e1:2c:38:b0:e3:bd:8f:4b:48:a7:7e:3a:c6:73:e3:
                    ab:bf:e1:da:6e:96:f5:fe:c3:e4:b4:a8:ad:bc:56:
                    34:d4:96:25:74:27:c3:10:db:35:10:25:1c:8e:4b:
                    81:9b:fb:42:04:7c:6f:3d:e2:38:6c:0e:e4:2e:8e:
                    2a:18:6d:30:cd:67:2a:23:6b:37:cf:05:9f:cc:b7:
                    59:58:7f:ba:c4:0a:3f:8c:a4:ad:cb:98:9c:c0:f2:
                    8f:69:67:0f:c1:4e:33:cf:fc:85:5e:bb:5e:cf:93:
                    b0:cf:d9:f4:52:79:87:b1:f8:4d:15:68:65:d5:b7:
                    19:08:63:7f:5e:b1:34:ad:05:8f:5a:f0:e4:e1:8f:
                    25:f2:5c:5c:61:95:b0:56:2d:31:2b:08:65:79:e5:
                    b1:3b:9d:3e:b9:52:4b:ac:5d:c4:58:66:85:8d:81:
                    b3:04:28:f4:3f:2f:ac:92:01:62:d5:fd:8e:0b:da:
                    02:0c:7a:c7:6e:09:1c:ac:1c:b2:4c:d7:54:b8:26:
                    33:b2:5f:14:f3:b1:f9:3d:62:4d:40:99:6b:b6:e7:
                    89:58:97:d6:d4:4d:ea:4b:68:52:f3:3c:a8:b1:35:
                    88:db
                Exponent: 65537 (0x10001)
        X509v3 extensions:
            X509v3 Subject Key Identifier: 
                A1:DF:33:C3:CF:3E:53:41:A7:68:44:CC:AA:19:E1:84:C9:0D:BC:C6
            X509v3 Authority Key Identifier: 
                keyid:B4:11:33:F1:D7:E2:5E:F7:53:9E:20:22:10:4F:86:06:BF:1F:C9:5E
                DirName:/C=AU/O=Dodgy Brothers/CN=Dodgy CA
                serial:1A:8C:8E:AE:35:C6:45:97:F1:69:35:FE:22:51:22:2F:5C:8A:B5:A2
            X509v3 Basic Constraints: critical
                CA:TRUE, pathlen:1
            X509v3 Key Usage: 
                Certificate Sign, CRL Sign
            X509v3 Issuer Alternative Name: 
                <EMPTY>

    Signature Algorithm: sha1WithRSAEncryption
    Signature Value:
        2e:5f:b5:d2:5a:e9:a1:f0:1e:af:26:2a:6f:9c:63:85:91:e4:
        fc:dc:12:7e:ce:85:40:67:e0:23:b6:fc:e8:ef:5b:fc:13:18:
        e2:a9:d2:1a:7b:e1:60:69:0e:68:c9:d1:6c:09:3f:0a:4e:24:
        e8:79:d8:00:ac:20:ad:e4:c5:07:59:d9:0b:0e:4a:51:1e:dc:
        e0:5d:95:de:05:9c:de:22:a1:4d:19:10:ed:91:9c:db:1f:f4:
        c2:94:db:c9:4b:b6:69:34:af:ef:76:35:d7:5f:69:8a:60:d4:
        25:d8:37:5a:47:8f:71:8f:a7:41:85:be:77:af:d0:b5:24:96:
        c4:5e:82:4b:60:0a:8e:30:a2:7c:3a:40:80:7d:bc:6f:dd:9d:
        51:6e:51:ab:ee:29:eb:3e:99:e0:21:22:19:25:4e:ea:f3:ad:
        22:f6:4d:2d:36:72:ee:ae:46:50:44:e9:7c:65:fd:92:5a:68:
        d1:63:58:49:8f:01:de:5d:96:be:c0:76:ac:c9:99:1d:2c:e2:
        f7:5f:51:b3:b8:cf:bd:98:ce:d8:b4:b9:4a:86:a2:38:10:ad:
        67:bd:a5:96:2b:9b:13:31:99:42:3c:75:2e:77:e9:52:ba:99:
        74:80:66:69:c8:b7:f9:06:87:24:7a:fc:a1:88:a1:1d:6e:f9:
        24:f0:9b:54
-----BEGIN CERTIFICATE-----
MIID6zCCAtOgAwIBAgIUIfuoGVhbt3fH3BHPPgRxwkz/NkEwDQYJKoZIhvcNAQEF
BQAwOTELMAkGA1UEBhMCQVUxFzAVBgNVBAoMDkRvZGd5IEJyb3RoZXJzMREwDwYD
VQQDDAhEb2RneSBDQTAeFw0yMzAzMjMyMTI2NDFaFw0yNDAzMjIyMTI2NDFaMF8x
CzAJBgNVBAYTAkFVMRcwFQYDVQQKDA5Eb2RneSBCcm90aGVyczESMBAGA1UEAwwJ
QnJvdGhlciAxMSMwIQYDVQQDDBpuZXh0dXBkYXRlX2dlbmVyYWxpemVkdGltZTCC
ASIwDQYJKoZIhvcNAQEBBQADggEPADCCAQoCggEBAL6VhvpxTGrqUZhQS5mhLGYV
82Dz4f9p+85IAR3+4Sw4sOO9j0tIp346xnPjq7/h2m6W9f7D5LSorbxWNNSWJXQn
wxDbNRAlHI5LgZv7QgR8bz3iOGwO5C6OKhhtMM1nKiNrN88Fn8y3WVh/usQKP4yk
rcuYnMDyj2lnD8FOM8/8hV67Xs+TsM/Z9FJ5h7H4TRVoZdW3GQhjf16xNK0Fj1rw
5OGPJfJcXGGVsFYtMSsIZXnlsTudPrlSS6xdxFhmhY2BswQo9D8vrJIBYtX9jgva
Agx6x24JHKwcskzXVLgmM7JfFPOx+T1iTUCZa7bniViX1tRN6ktoUvM8qLE1iNsC
AwEAAaOBxDCBwTAdBgNVHQ4EFgQUod8zw88+U0GnaETMqhnhhMkNvMYwdAYDVR0j
BG0wa4AUtBEz8dfiXvdTniAiEE+GBr8fyV6hPaQ7MDkxCzAJBgNVBAYTAkFVMRcw
FQYDVQQKDA5Eb2RneSBCcm90aGVyczERMA8GA1UEAwwIRG9kZ3kgQ0GCFBqMjq41
xkWX8Wk1/iJRIi9cirWiMBIGA1UdEwEB/wQIMAYBAf8CAQEwCwYDVR0PBAQDAgEG
MAkGA1UdEgQCMAAwDQYJKoZIhvcNAQEFBQADggEBAC5ftdJa6aHwHq8mKm+cY4WR
5PzcEn7OhUBn4CO2/OjvW/wTGOKp0hp74WBpDmjJ0WwJPwpOJOh52ACsIK3kxQdZ
2QsOSlEe3OBdld4FnN4ioU0ZEO2RnNsf9MKU28lLtmk0r+92NddfaYpg1CXYN1pH
j3GPp0GFvnev0LUklsRegktgCo4wonw6QIB9vG/dnVFuUavuKes+meAhIhklTurz
rSL2TS02cu6uRlBE6Xxl/ZJaaNFjWEmPAd5dlr7AdqzJmR0s4vdfUbO4z72Yzti0
uUqGojgQrWe9pZYrmxMxmUI8dS536VK6mXSAZmnIt/kGhyR6/KGIoR1u+STwm1Q=
-----END CERTIFICATE-----
