Certificate:
    Data:
        Version: 3 (0x2)
        Serial Number:
            21:fb:a8:19:58:5b:b7:77:c7:dc:11:cf:3e:04:71:c2:4c:ff:36:3b
        Signature Algorithm: sha1WithRSAEncryption
        Issuer: C=AU, O=Dodgy Brothers, CN=Dodgy CA
        Validity
            Not Before: Mar 23 21:26:38 2023 GMT
            Not After : Mar 22 21:26:38 2024 GMT
        Subject: C=AU, O=Dodgy Brothers, CN=Brother 1, CN=notimes
        Subject Public Key Info:
            Public Key Algorithm: rsaEncryption
                Public-Key: (2048 bit)
                Modulus:
                    00:be:95:86:fa:71:4c:6a:ea:51:98:50:4b:99:a1:
                    2c:66:15:f3:60:f3:e1:ff:69:fb:ce:48:01:1d:fe:
                    e1:2c:38:b0:e3:bd:8f:4b:48:a7:7e:3a:c6:73:e3:
                    ab:bf:e1:da:6e:96:f5:fe:c3:e4:b4:a8:ad:bc:56:
                    34:d4:96:25:74:27:c3:10:db:35:10:25:1c:8e:4b:
                    81:9b:fb:42:04:7c:6f:3d:e2:38:6c:0e:e4:2e:8e:
                    2a:18:6d:30:cd:67:2a:23:6b:37:cf:05:9f:cc:b7:
                    59:58:7f:ba:c4:0a:3f:8c:a4:ad:cb:98:9c:c0:f2:
                    8f:69:67:0f:c1:4e:33:cf:fc:85:5e:bb:5e:cf:93:
                    b0:cf:d9:f4:52:79:87:b1:f8:4d:15:68:65:d5:b7:
                    19:08:63:7f:5e:b1:34:ad:05:8f:5a:f0:e4:e1:8f:
                    25:f2:5c:5c:61:95:b0:56:2d:31:2b:08:65:79:e5:
                    b1:3b:9d:3e:b9:52:4b:ac:5d:c4:58:66:85:8d:81:
                    b3:04:28:f4:3f:2f:ac:92:01:62:d5:fd:8e:0b:da:
                    02:0c:7a:c7:6e:09:1c:ac:1c:b2:4c:d7:54:b8:26:
                    33:b2:5f:14:f3:b1:f9:3d:62:4d:40:99:6b:b6:e7:
                    89:58:97:d6:d4:4d:ea:4b:68:52:f3:3c:a8:b1:35:
                    88:db
                Exponent: 65537 (0x10001)
        X509v3 extensions:
            X509v3 Subject Key Identifier: 
                A1:DF:33:C3:CF:3E:53:41:A7:68:44:CC:AA:19:E1:84:C9:0D:BC:C6
            X509v3 Authority Key Identifier: 
                keyid:B4:11:33:F1:D7:E2:5E:F7:53:9E:20:22:10:4F:86:06:BF:1F:C9:5E
                DirName:/C=AU/O=Dodgy Brothers/CN=Dodgy CA
                serial:1A:8C:8E:AE:35:C6:45:97:F1:69:35:FE:22:51:22:2F:5C:8A:B5:A2
            X509v3 Basic Constraints: critical
                CA:TRUE, pathlen:1
            X509v3 Key Usage: 
                Certificate Sign, CRL Sign
            X509v3 Issuer Alternative Name: 
                <EMPTY>

    Signature Algorithm: sha1WithRSAEncryption
    Signature Value:
        71:c1:ed:a7:a9:d9:fb:38:ee:a9:db:9c:b6:3a:42:9c:dc:80:
        b3:4a:03:84:f1:e6:fa:67:c1:56:35:58:3a:ef:d8:f3:0c:15:
        ef:b1:41:58:75:89:d3:98:77:20:c8:9c:f1:89:19:f2:4a:ef:
        b3:f3:ac:b6:66:88:a0:0d:e1:b3:8a:0f:67:d5:bd:40:8a:c9:
        f9:9b:ee:a5:f2:fc:b0:d6:9e:0a:22:43:08:9a:e1:19:53:51:
        42:96:2b:93:d0:3b:cc:6c:be:83:9f:5f:9d:20:02:76:1e:8b:
        c6:59:8b:7b:05:99:f0:5c:17:43:74:67:d1:c0:21:13:7c:f2:
        b3:dc:42:69:67:60:b0:09:4f:ab:47:05:41:cb:10:e5:37:08:
        58:11:8d:a9:4a:3d:e4:0a:ad:e1:29:05:0a:91:fb:ab:f9:7d:
        ad:91:85:b0:02:b1:36:d7:a5:05:c4:38:90:db:4e:a4:ca:5a:
        8a:c9:1c:84:77:11:50:ff:99:84:c3:8b:38:95:8e:b9:51:d1:
        67:87:b0:58:5a:e8:90:3b:31:c0:a8:85:22:dd:3f:6c:33:60:
        cd:a9:14:b7:58:a7:f5:d9:da:25:d1:c6:93:e2:97:10:64:66:
        79:f2:23:54:f8:e0:e1:a5:ae:0c:8b:69:47:25:e0:a1:61:bb:
        44:c8:53:ac
-----BEGIN CERTIFICATE-----
MIID2DCCAsCgAwIBAgIUIfuoGVhbt3fH3BHPPgRxwkz/NjswDQYJKoZIhvcNAQEF
BQAwOTELMAkGA1UEBhMCQVUxFzAVBgNVBAoMDkRvZGd5IEJyb3RoZXJzMREwDwYD
VQQDDAhEb2RneSBDQTAeFw0yMzAzMjMyMTI2MzhaFw0yNDAzMjIyMTI2MzhaMEwx
CzAJBgNVBAYTAkFVMRcwFQYDVQQKDA5Eb2RneSBCcm90aGVyczESMBAGA1UEAwwJ
QnJvdGhlciAxMRAwDgYDVQQDDAdub3RpbWVzMIIBIjANBgkqhkiG9w0BAQEFAAOC
AQ8AMIIBCgKCAQEAvpWG+nFMaupRmFBLmaEsZhXzYPPh/2n7zkgBHf7hLDiw472P
S0infjrGc+Orv+Habpb1/sPktKitvFY01JYldCfDENs1ECUcjkuBm/tCBHxvPeI4
bA7kLo4qGG0wzWcqI2s3zwWfzLdZWH+6xAo/jKSty5icwPKPaWcPwU4zz/yFXrte
z5Owz9n0UnmHsfhNFWhl1bcZCGN/XrE0rQWPWvDk4Y8l8lxcYZWwVi0xKwhleeWx
O50+uVJLrF3EWGaFjYGzBCj0Py+skgFi1f2OC9oCDHrHbgkcrByyTNdUuCYzsl8U
87H5PWJNQJlrtueJWJfW1E3qS2hS8zyosTWI2wIDAQABo4HEMIHBMB0GA1UdDgQW
BBSh3zPDzz5TQadoRMyqGeGEyQ28xjB0BgNVHSMEbTBrgBS0ETPx1+Je91OeICIQ
T4YGvx/JXqE9pDswOTELMAkGA1UEBhMCQVUxFzAVBgNVBAoMDkRvZGd5IEJyb3Ro
ZXJzMREwDwYDVQQDDAhEb2RneSBDQYIUGoyOrjXGRZfxaTX+IlEiL1yKtaIwEgYD
VR0TAQH/BAgwBgEB/wIBATALBgNVHQ8EBAMCAQYwCQYDVR0SBAIwADANBgkqhkiG
9w0BAQUFAAOCAQEAccHtp6nZ+zjuqductjpCnNyAs0oDhPHm+mfBVjVYOu/Y8wwV
77FBWHWJ05h3IMic8YkZ8krvs/OstmaIoA3hs4oPZ9W9QIrJ+ZvupfL8sNaeCiJD
CJrhGVNRQpYrk9A7zGy+g59fnSACdh6LxlmLewWZ8FwXQ3Rn0cAhE3zys9xCaWdg
sAlPq0cFQcsQ5TcIWBGNqUo95Aqt4SkFCpH7q/l9rZGFsAKxNtelBcQ4kNtOpMpa
iskchHcRUP+ZhMOLOJWOuVHRZ4ewWFrokDsxwKiFIt0/bDNgzakUt1in9dnaJdHG
k+KXEGRmefIjVPjg4aWuDItpRyXgoWG7RMhTrA==
-----END CERTIFICATE-----
