Certificate:
    Data:
        Version: 3 (0x2)
        Serial Number: 1234567890 (0x499602d2)
        Signature Algorithm: sha256WithRSAEncryption
        Issuer: CN = ca.example.com
        Validity
            Not Before: Mar 23 21:20:29 2023 GMT
            Not After : Mar 22 21:20:29 2024 GMT
        Subject: CN = test.example.com
        Subject Public Key Info:
            Public Key Algorithm: rsaEncryption
                Public-Key: (2048 bit)
                Modulus:
                    00:a6:a7:40:b6:5d:bc:67:96:25:b8:eb:ca:f9:8e:
                    22:3e:84:0d:34:03:9f:be:10:a0:1f:09:93:07:c3:
                    cb:96:74:07:87:79:33:c8:1e:63:6a:a1:8c:76:0d:
                    c7:12:9c:13:2d:14:7a:02:e2:05:f2:7e:0f:bf:b6:
                    f9:05:7b:0a:8a:15:87:a7:01:09:78:3c:d6:57:d1:
                    bd:eb:75:fa:27:e7:32:d9:a8:b0:60:f1:ff:fe:7c:
                    c1:4a:53:81:7f:c0:96:e4:ab:0f:57:bc:71:c5:e4:
                    d0:f4:18:d9:f0:5f:86:18:80:07:4e:db:f1:1e:3f:
                    27:0b:de:02:15:e2:67:d4:ad:06:99:0e:d8:c9:4f:
                    7d:8b:b8:e0:30:c4:a3:98:66:4a:a5:e5:0a:1b:4a:
                    77:97:a3:c3:20:f8:f2:0c:8b:72:90:19:6c:57:2d:
                    a7:6c:ed:bd:b0:62:25:4e:a1:15:c6:27:7c:96:c1:
                    ff:7b:c3:38:4d:ea:22:80:be:ff:71:c7:86:7c:bf:
                    43:6a:21:b2:4b:54:f3:85:f4:02:8b:8b:21:8b:f6:
                    d8:12:ed:c3:de:dd:bb:58:8c:a3:9e:14:a1:73:eb:
                    35:d8:95:69:7b:ec:9c:80:90:c0:ee:27:11:3e:56:
                    7a:f3:75:25:67:d3:be:be:e6:31:6f:79:11:1e:ba:
                    55:db
                Exponent: 65537 (0x10001)
        X509v3 extensions:
            X509v3 Subject Key Identifier: 
                D6:2A:93:D0:84:32:CA:24:1E:70:36:35:B3:01:6D:00:E0:09:C8:05
            X509v3 Authority Key Identifier: 
                D6:2A:93:D0:84:32:CA:24:1E:70:36:35:B3:01:6D:00:E0:09:C8:05
            X509v3 Basic Constraints: critical
                CA:TRUE
    Signature Algorithm: sha256WithRSAEncryption
    Signature Value:
        09:ec:6a:73:83:79:af:64:a7:b7:9b:12:f9:6e:0b:27:10:8c:
        0f:3e:0b:3a:67:10:1f:86:6c:18:78:41:30:59:ac:b3:d2:7a:
        2d:d0:ba:fd:b3:8c:76:b0:a2:8f:fa:00:c9:f5:6e:1c:14:bf:
        eb:f8:3e:56:50:ed:9d:08:b2:58:f9:ba:f5:c4:5c:f1:0f:c7:
        c7:d1:0c:81:b3:07:4c:11:a5:be:94:0b:44:9e:1b:fe:7e:7d:
        c8:7d:6f:c3:ee:2e:fa:a6:fa:71:81:57:95:85:66:f8:3e:3b:
        7f:8f:2b:7c:cc:a0:e1:33:52:b4:cf:e1:2a:f9:d3:18:1a:da:
        67:45:7c:fb:4b:a6:0f:6c:88:2f:0d:3a:52:3e:50:8b:27:6f:
        1d:08:56:b3:c9:37:62:e4:f5:1b:c2:00:a6:9c:e0:a4:ee:30:
        da:68:1e:c0:ad:94:7b:b2:f5:89:dc:e4:c9:7b:92:0e:70:64:
        1a:90:e2:88:80:2f:5a:6a:69:7d:9b:b7:21:73:31:72:23:cc:
        eb:c2:14:f3:ec:d6:9c:cc:e0:0d:48:5d:63:ab:59:5f:69:a3:
        80:24:6d:d8:3c:6a:f0:3c:f0:48:98:1d:8d:96:da:f4:ff:51:
        99:3b:37:55:21:71:79:52:04:4d:ef:69:72:e0:eb:2d:69:88:
        d6:0d:8f:b1:de:ce:c7:2b:b7:26:cc:a4:ea:16:fa:36:a1:e7:
        17:a8:83:21:38:6b:28:d2:ce:4b:3c:35:fd:4c:24:ca:9f:01:
        81:bd:12:c1:92:ce:f1:a5:67:33:cc:ef:7b:44:b5:64:d8:be:
        3f:8c:ea:6f:05:7f:49:9d:c3:c2:ce:cb:d6:f4:79:eb:13:3a:
        2d:f5:da:72:bc:d2:3d:bf:a0:03:e7:4f:ae:c7:0a:e5:ac:a0:
        9d:1a:48:51:c9:46:a9:26:77:cb:f8:4f:cc:50:1e:94:56:5e:
        fd:cf:86:c6:6e:ec:08:e3:b9:af:64:4a:2e:fb:03:e5:b8:e2:
        64:8c:20:ce:21:1f:f8:32:78:f7:0d:af:79:03:79:90:b3:d8:
        7e:d4:c9:cc:c1:30:1c:8e:8a:f5:1a:64:6f:80:2b:be:f4:44:
        0a:dc:9a:8d:ca:7f:29:ce:02:b9:3b:81:b9:46:a4:e1:55:00:
        a7:52:09:17:17:d6:2c:b6:12:40:b6:2b:35:6f:93:c0:c1:6f:
        80:2e:a2:50:9d:40:f2:4a:0a:da:10:95:2d:e8:89:83:b0:84:
        9d:8b:a5:b9:85:4c:c1:b9:35:4c:3b:e5:dc:42:9c:cb:70:46:
        49:b1:19:76:ea:06:17:d9:f0:df:24:c2:7e:2a:54:ea:d0:d0:
        3b:7a:56:5b:53:ae:6c:88
-----BEGIN CERTIFICATE-----
MIIEBTCCAe2gAwIBAgIESZYC0jANBgkqhkiG9w0BAQsFADAZMRcwFQYDVQQDDA5j
YS5leGFtcGxlLmNvbTAeFw0yMzAzMjMyMTIwMjlaFw0yNDAzMjIyMTIwMjlaMBsx
GTAXBgNVBAMMEHRlc3QuZXhhbXBsZS5jb20wggEiMA0GCSqGSIb3DQEBAQUAA4IB
DwAwggEKAoIBAQCmp0C2XbxnliW468r5jiI+hA00A5++EKAfCZMHw8uWdAeHeTPI
HmNqoYx2DccSnBMtFHoC4gXyfg+/tvkFewqKFYenAQl4PNZX0b3rdfon5zLZqLBg
8f/+fMFKU4F/wJbkqw9XvHHF5ND0GNnwX4YYgAdO2/EePycL3gIV4mfUrQaZDtjJ
T32LuOAwxKOYZkql5QobSneXo8Mg+PIMi3KQGWxXLads7b2wYiVOoRXGJ3yWwf97
wzhN6iKAvv9xx4Z8v0NqIbJLVPOF9AKLiyGL9tgS7cPe3btYjKOeFKFz6zXYlWl7
7JyAkMDuJxE+VnrzdSVn076+5jFveREeulXbAgMBAAGjUzBRMB0GA1UdDgQWBBTW
KpPQhDLKJB5wNjWzAW0A4AnIBTAfBgNVHSMEGDAWgBTWKpPQhDLKJB5wNjWzAW0A
4AnIBTAPBgNVHRMBAf8EBTADAQH/MA0GCSqGSIb3DQEBCwUAA4ICAQAJ7Gpzg3mv
ZKe3mxL5bgsnEIwPPgs6ZxAfhmwYeEEwWayz0not0Lr9s4x2sKKP+gDJ9W4cFL/r
+D5WUO2dCLJY+br1xFzxD8fH0QyBswdMEaW+lAtEnhv+fn3IfW/D7i76pvpxgVeV
hWb4Pjt/jyt8zKDhM1K0z+Eq+dMYGtpnRXz7S6YPbIgvDTpSPlCLJ28dCFazyTdi
5PUbwgCmnOCk7jDaaB7ArZR7svWJ3OTJe5IOcGQakOKIgC9aaml9m7chczFyI8zr
whTz7NaczOANSF1jq1lfaaOAJG3YPGrwPPBImB2Nltr0/1GZOzdVIXF5UgRN72ly
4OstaYjWDY+x3s7HK7cmzKTqFvo2oecXqIMhOGso0s5LPDX9TCTKnwGBvRLBks7x
pWczzO97RLVk2L4/jOpvBX9JncPCzsvW9HnrEzot9dpyvNI9v6AD50+uxwrlrKCd
GkhRyUapJnfL+E/MUB6UVl79z4bGbuwI47mvZEou+wPluOJkjCDOIR/4Mnj3Da95
A3mQs9h+1MnMwTAcjor1GmRvgCu+9EQK3JqNyn8pzgK5O4G5RqThVQCnUgkXF9Ys
thJAtis1b5PAwW+ALqJQnUDySgraEJUt6ImDsISdi6W5hUzBuTVMO+XcQpzLcEZJ
sRl26gYX2fDfJMJ+KlTq0NA7elZbU65siA==
-----END CERTIFICATE-----
