Certificate:
    Data:
        Version: 1 (0x0)
        Serial Number:
            54:6b:91:fa:44:9e:4d:6b:c1:cd:46:db:c6:36:1a:3e:1d:47:8b:3b
        Signature Algorithm: sha256WithRSAEncryption
        Issuer: CN = ca.example.com
        Validity
            Not Before: Mar 23 21:20:30 2023 GMT
            Not After : Apr 22 21:20:30 2023 GMT
        Subject: CN = b.example.com
        Subject Public Key Info:
            Public Key Algorithm: rsaEncryption
                Public-Key: (4096 bit)
                Modulus:
                    00:bd:d2:23:19:47:2c:ef:95:56:d9:d9:f7:af:f7:
                    3c:2f:9d:4d:d1:48:d1:20:fa:36:61:3c:22:e0:88:
                    64:84:d7:2b:9a:62:e0:3d:eb:44:27:39:ad:f4:1c:
                    49:be:2d:2b:d7:19:a3:53:c2:42:41:18:1c:fc:14:
                    01:44:ae:e2:e4:85:79:55:d1:c1:62:10:22:af:e2:
                    12:3f:85:a3:b9:de:b3:1b:26:4e:4b:0c:d1:58:be:
                    5e:1c:e1:5b:18:56:4e:51:41:cd:89:ca:4f:6f:e6:
                    e5:0d:49:d8:cf:8a:07:e6:fe:ec:77:77:a6:2f:f5:
                    9a:2d:c3:43:18:b4:dc:65:4b:35:24:7a:14:0d:b8:
                    01:9b:28:a4:0b:6e:73:5e:09:35:2b:ac:92:3b:5b:
                    2f:ad:b7:76:2c:f2:90:34:db:7e:a5:10:e4:65:c8:
                    01:72:fd:3f:1e:b4:a4:5c:9f:96:84:0e:1f:a1:5d:
                    ba:18:01:54:64:0f:7a:06:c4:59:75:44:2a:b5:e2:
                    52:c2:8d:d5:91:4c:3f:ca:3a:3e:0f:b8:d9:54:e6:
                    cd:0e:63:74:d5:4b:bc:ed:b2:9d:20:af:58:c0:bf:
                    55:b7:45:be:62:d5:a4:94:0b:bb:86:8d:48:10:b0:
                    ea:70:a3:d2:d3:31:b0:b6:43:b9:a6:a9:11:04:ff:
                    09:c7:48:06:14:31:d7:76:f4:d1:f9:81:ef:a7:5d:
                    d0:7b:ae:5d:02:a6:3c:f6:50:98:0b:c7:50:3b:11:
                    1c:99:80:9d:ec:24:b8:48:0c:dc:dd:81:9b:a2:42:
                    39:c8:78:cc:11:a2:b5:84:5c:25:6c:22:00:50:b6:
                    26:d1:72:0a:c0:c6:af:5b:6a:a4:a5:d5:f7:b4:cd:
                    b7:77:1b:f3:4e:36:78:cd:1c:52:72:9f:e1:3e:17:
                    81:57:80:ae:7f:7b:99:4d:71:5a:c6:68:67:4e:a9:
                    8f:fc:c7:82:77:c2:c3:94:5e:d1:98:95:dd:70:76:
                    58:60:72:fd:10:ea:1a:1c:9c:a2:f6:48:83:a6:cd:
                    62:9e:19:a8:9e:06:9f:95:60:e1:69:fc:b4:84:ba:
                    75:10:2c:f6:34:86:ea:e5:57:81:68:42:51:ef:89:
                    35:ab:c6:22:a1:79:4e:19:af:09:72:ae:42:e7:5c:
                    41:8e:b1:33:65:2c:5c:08:e6:e4:96:39:2c:f9:16:
                    2d:0d:75:ee:40:80:db:37:c9:60:ed:c5:43:89:37:
                    dd:8a:d2:04:e0:0f:27:24:78:09:1a:14:9c:68:cc:
                    78:3a:44:19:ea:89:28:02:2a:6a:c7:c2:b6:bc:68:
                    92:39:37:b7:92:19:22:66:06:ec:4b:84:7d:bd:3d:
                    a3:a9:31
                Exponent: 65537 (0x10001)
    Signature Algorithm: sha256WithRSAEncryption
    Signature Value:
        ba:1b:34:9e:c9:c3:08:8d:6b:0c:da:48:77:2d:ec:8c:cb:2d:
        e6:b7:0f:3a:a7:d3:d8:09:64:19:63:08:c0:93:ef:cb:7f:72:
        04:fb:68:00:00:0b:f3:5b:fa:3c:30:54:a9:34:c6:77:c7:22:
        35:7d:b7:f2:13:28:c7:c9:a9:27:36:e0:b5:08:6d:ee:e2:43:
        78:7a:20:24:61:05:8d:21:0d:32:a0:05:bb:2e:34:18:4f:d8:
        74:91:e1:d9:d9:b3:a3:06:e6:1b:c0:80:f9:25:e1:e2:90:cb:
        47:a1:5e:01:5d:bb:9d:da:c4:e4:cc:6d:37:11:a9:12:ad:72:
        cb:05:e7:07:67:5f:48:f5:33:0b:f2:85:50:a7:77:7a:4a:55:
        06:8c:0c:38:26:f1:b0:f9:12:56:5e:5f:5e:30:69:b1:8a:e8:
        74:fe:90:52:1a:7f:b0:58:93:ba:7e:ce:c3:33:25:b5:26:77:
        77:87:46:f6:25:c0:2a:7f:03:d0:df:af:d5:c1:b0:6e:8d:2b:
        5f:0a:82:26:87:f3:dd:a8:96:8f:45:b4:9b:f2:4b:6f:d3:f5:
        73:71:09:19:bb:31:98:f6:e9:ed:db:b5:6d:7b:72:02:ad:c7:
        5a:a5:06:5c:96:e0:03:53:bc:a6:c5:08:9c:b7:aa:b2:d4:2a:
        80:21:b8:86:7f:aa:f2:7e:ae:e7:13:43:d7:47:50:1d:b9:94:
        fc:1d:66:b0:66:a1:80:bb:9c:09:8d:42:85:ba:a3:99:6d:63:
        9e:1e:eb:eb:e2:23:fb:8d:85:da:be:66:e2:79:69:7d:3f:60:
        7b:f7:a8:32:2f:29:f3:02:22:9c:31:27:34:99:90:b1:db:86:
        fc:e4:52:b9:1a:7c:cb:f0:21:d7:62:d5:4b:21:a2:40:5e:5d:
        63:ae:22:a3:8d:0f:be:73:cc:70:bb:53:a4:6e:64:09:56:e1:
        d9:c5:69:3e:77:43:07:5d:10:e6:37:3d:53:24:6e:a8:db:cd:
        5f:71:b2:07:c8:72:05:fa:7d:f9:64:08:61:4a:7e:11:f4:52:
        7e:17:3d:8a:ea:22:44:6e:49:54:bd:d1:70:bd:8f:45:cd:30:
        c7:5a:0b:76:0e:ce:09:dd:b2:5c:87:3f:4d:80:4a:29:f1:e4:
        d5:2d:af:83:52:59:9d:e9:c9:98:52:9f:88:90:0a:e0:27:b0:
        3d:fc:84:ba:8f:fb:f5:51:f0:f8:bb:eb:31:49:15:13:28:b3:
        78:c2:43:e5:0b:0c:3b:d7:1e:3a:a7:3f:ca:df:6e:8d:6b:61:
        6b:38:bb:32:bc:76:32:41:1c:bd:ef:e0:25:1a:e7:39:50:93:
        81:5a:b2:47:1f:4c:68:66
-----BEGIN CERTIFICATE-----
MIIEuDCCAqACFFRrkfpEnk1rwc1G28Y2Gj4dR4s7MA0GCSqGSIb3DQEBCwUAMBkx
FzAVBgNVBAMMDmNhLmV4YW1wbGUuY29tMB4XDTIzMDMyMzIxMjAzMFoXDTIzMDQy
MjIxMjAzMFowGDEWMBQGA1UEAwwNYi5leGFtcGxlLmNvbTCCAiIwDQYJKoZIhvcN
AQEBBQADggIPADCCAgoCggIBAL3SIxlHLO+VVtnZ96/3PC+dTdFI0SD6NmE8IuCI
ZITXK5pi4D3rRCc5rfQcSb4tK9cZo1PCQkEYHPwUAUSu4uSFeVXRwWIQIq/iEj+F
o7nesxsmTksM0Vi+XhzhWxhWTlFBzYnKT2/m5Q1J2M+KB+b+7Hd3pi/1mi3DQxi0
3GVLNSR6FA24AZsopAtuc14JNSuskjtbL623dizykDTbfqUQ5GXIAXL9Px60pFyf
loQOH6FduhgBVGQPegbEWXVEKrXiUsKN1ZFMP8o6Pg+42VTmzQ5jdNVLvO2ynSCv
WMC/VbdFvmLVpJQLu4aNSBCw6nCj0tMxsLZDuaapEQT/CcdIBhQx13b00fmB76dd
0HuuXQKmPPZQmAvHUDsRHJmAnewkuEgM3N2Bm6JCOch4zBGitYRcJWwiAFC2JtFy
CsDGr1tqpKXV97TNt3cb8042eM0cUnKf4T4XgVeArn97mU1xWsZoZ06pj/zHgnfC
w5Re0ZiV3XB2WGBy/RDqGhycovZIg6bNYp4ZqJ4Gn5Vg4Wn8tIS6dRAs9jSG6uVX
gWhCUe+JNavGIqF5ThmvCXKuQudcQY6xM2UsXAjm5JY5LPkWLQ117kCA2zfJYO3F
Q4k33YrSBOAPJyR4CRoUnGjMeDpEGeqJKAIqasfCtrxokjk3t5IZImYG7EuEfb09
o6kxAgMBAAEwDQYJKoZIhvcNAQELBQADggIBALobNJ7JwwiNawzaSHct7IzLLea3
Dzqn09gJZBljCMCT78t/cgT7aAAAC/Nb+jwwVKk0xnfHIjV9t/ITKMfJqSc24LUI
be7iQ3h6ICRhBY0hDTKgBbsuNBhP2HSR4dnZs6MG5hvAgPkl4eKQy0ehXgFdu53a
xOTMbTcRqRKtcssF5wdnX0j1MwvyhVCnd3pKVQaMDDgm8bD5ElZeX14wabGK6HT+
kFIaf7BYk7p+zsMzJbUmd3eHRvYlwCp/A9Dfr9XBsG6NK18KgiaH892olo9FtJvy
S2/T9XNxCRm7MZj26e3btW17cgKtx1qlBlyW4ANTvKbFCJy3qrLUKoAhuIZ/qvJ+
rucTQ9dHUB25lPwdZrBmoYC7nAmNQoW6o5ltY54e6+viI/uNhdq+ZuJ5aX0/YHv3
qDIvKfMCIpwxJzSZkLHbhvzkUrkafMvwIddi1UshokBeXWOuIqOND75zzHC7U6Ru
ZAlW4dnFaT53QwddEOY3PVMkbqjbzV9xsgfIcgX6fflkCGFKfhH0Un4XPYrqIkRu
SVS90XC9j0XNMMdaC3YOzgndslyHP02ASinx5NUtr4NSWZ3pyZhSn4iQCuAnsD38
hLqP+/VR8Pi76zFJFRMos3jCQ+ULDDvXHjqnP8rfbo1rYWs4uzK8djJBHL3v4CUa
5zlQk4FaskcfTGhm
-----END CERTIFICATE-----
