Certificate:
    Data:
        Version: 3 (0x2)
        Serial Number:
            1a:8c:8e:ae:35:c6:45:97:f1:69:35:fe:22:51:22:2f:5c:8a:b5:a2
        Signature Algorithm: sha1WithRSAEncryption
        Issuer: C=AU, O=Dodgy Brothers, CN=Dodgy CA
        Validity
            Not Before: Mar 23 21:26:37 2023 GMT
            Not After : Mar 22 21:26:37 2026 GMT
        Subject: C=AU, O=Dodgy Brothers, CN=Dodgy CA
        Subject Public Key Info:
            Public Key Algorithm: rsaEncryption
                Public-Key: (2048 bit)
                Modulus:
                    00:96:9d:a4:3d:00:4b:1c:5f:c6:cb:dd:8f:d2:31:
                    b2:88:15:cc:c4:86:2c:5c:e2:69:8b:84:f4:a7:a3:
                    53:df:91:e3:bf:51:89:fb:f0:7c:10:0d:3b:ad:ac:
                    35:62:75:f5:7f:ff:f4:6e:54:8f:05:a6:92:23:b3:
                    9f:59:39:d0:39:18:b0:10:40:de:62:73:8a:4e:b0:
                    8e:df:dc:e7:c9:41:22:54:84:80:08:29:bc:35:3c:
                    86:df:30:de:dd:b4:24:ff:7e:62:a5:c0:7a:e8:2a:
                    16:3f:d6:97:da:c5:42:db:2f:69:64:91:cb:08:d7:
                    56:5a:79:7f:1b:84:41:e9:4d:9d:77:09:10:a8:6c:
                    29:33:44:c6:c0:54:65:e6:e8:e3:f2:75:05:6a:64:
                    95:6c:c0:f4:fd:25:61:6e:48:36:f0:c0:03:07:05:
                    d6:7c:e5:11:fd:18:e8:4a:2d:d3:72:0c:37:28:36:
                    31:31:38:85:e8:71:8d:d8:02:49:c8:bc:19:89:c5:
                    8a:b1:3f:a2:35:ea:aa:90:1c:64:68:7b:af:67:6a:
                    5a:06:54:0f:50:e1:f9:b4:f6:be:3a:d4:ce:3f:1e:
                    4c:7d:c6:77:32:3e:a2:58:ed:db:dd:74:d8:92:14:
                    6a:a8:f7:cb:34:58:91:a8:7c:14:b1:7d:08:b3:4d:
                    b1:47
                Exponent: 65537 (0x10001)
        X509v3 extensions:
            X509v3 Subject Key Identifier: 
                B4:11:33:F1:D7:E2:5E:F7:53:9E:20:22:10:4F:86:06:BF:1F:C9:5E
            X509v3 Authority Key Identifier: 
                keyid:B4:11:33:F1:D7:E2:5E:F7:53:9E:20:22:10:4F:86:06:BF:1F:C9:5E
                DirName:/C=AU/O=Dodgy Brothers/CN=Dodgy CA
                serial:1A:8C:8E:AE:35:C6:45:97:F1:69:35:FE:22:51:22:2F:5C:8A:B5:A2
            X509v3 Basic Constraints: critical
                CA:TRUE, pathlen:1
            X509v3 Key Usage: 
                Certificate Sign, CRL Sign
            X509v3 Issuer Alternative Name: 
                <EMPTY>

    Signature Algorithm: sha1WithRSAEncryption
    Signature Value:
        70:35:cb:29:da:d2:9c:ad:47:8b:2b:20:49:1a:65:b2:f4:2d:
        e2:8b:34:2b:3b:2f:a5:55:0f:fc:d1:e6:58:3b:c4:46:98:73:
        fe:5e:85:f7:cf:47:85:8f:87:69:ad:68:41:36:01:18:5f:78:
        18:be:6d:4d:bd:84:87:74:88:6c:6a:76:34:ba:53:71:87:98:
        a3:ce:fa:e1:21:9b:6d:39:2f:12:10:42:c7:72:f3:7b:cf:a8:
        35:05:61:bf:72:64:49:50:bc:77:08:73:91:57:60:df:10:63:
        32:9a:e8:7f:fa:f1:06:6c:a9:e3:a5:b1:b4:ad:94:fc:d7:04:
        80:d4:36:01:86:7f:ea:71:f8:75:e7:33:db:6c:27:47:e3:57:
        84:2b:43:13:b0:08:f6:13:9f:15:cd:29:78:2b:b1:d0:2f:df:
        5f:0f:9c:3a:32:52:17:4d:d1:a2:8d:82:38:8f:3c:78:16:3d:
        31:52:7f:a9:3b:3d:f7:9f:45:53:26:3e:47:21:b9:bc:53:ba:
        75:20:61:8a:40:92:be:26:a2:94:e4:23:6f:39:65:b3:39:61:
        d2:a9:1e:58:ac:53:da:43:de:81:c5:42:e6:67:f0:0d:a9:9e:
        e1:e9:c1:02:dc:98:3c:1f:f7:fb:68:6c:37:49:cf:88:66:bb:
        b5:e3:3f:56
-----BEGIN CERTIFICATE-----
MIIDxTCCAq2gAwIBAgIUGoyOrjXGRZfxaTX+IlEiL1yKtaIwDQYJKoZIhvcNAQEF
BQAwOTELMAkGA1UEBhMCQVUxFzAVBgNVBAoMDkRvZGd5IEJyb3RoZXJzMREwDwYD
VQQDDAhEb2RneSBDQTAeFw0yMzAzMjMyMTI2MzdaFw0yNjAzMjIyMTI2MzdaMDkx
CzAJBgNVBAYTAkFVMRcwFQYDVQQKDA5Eb2RneSBCcm90aGVyczERMA8GA1UEAwwI
RG9kZ3kgQ0EwggEiMA0GCSqGSIb3DQEBAQUAA4IBDwAwggEKAoIBAQCWnaQ9AEsc
X8bL3Y/SMbKIFczEhixc4mmLhPSno1PfkeO/UYn78HwQDTutrDVidfV///RuVI8F
ppIjs59ZOdA5GLAQQN5ic4pOsI7f3OfJQSJUhIAIKbw1PIbfMN7dtCT/fmKlwHro
KhY/1pfaxULbL2lkkcsI11ZaeX8bhEHpTZ13CRCobCkzRMbAVGXm6OPydQVqZJVs
wPT9JWFuSDbwwAMHBdZ85RH9GOhKLdNyDDcoNjExOIXocY3YAknIvBmJxYqxP6I1
6qqQHGRoe69naloGVA9Q4fm09r461M4/Hkx9xncyPqJY7dvddNiSFGqo98s0WJGo
fBSxfQizTbFHAgMBAAGjgcQwgcEwHQYDVR0OBBYEFLQRM/HX4l73U54gIhBPhga/
H8leMHQGA1UdIwRtMGuAFLQRM/HX4l73U54gIhBPhga/H8leoT2kOzA5MQswCQYD
VQQGEwJBVTEXMBUGA1UECgwORG9kZ3kgQnJvdGhlcnMxETAPBgNVBAMMCERvZGd5
IENBghQajI6uNcZFl/FpNf4iUSIvXIq1ojASBgNVHRMBAf8ECDAGAQH/AgEBMAsG
A1UdDwQEAwIBBjAJBgNVHRIEAjAAMA0GCSqGSIb3DQEBBQUAA4IBAQBwNcsp2tKc
rUeLKyBJGmWy9C3iizQrOy+lVQ/80eZYO8RGmHP+XoX3z0eFj4dprWhBNgEYX3gY
vm1NvYSHdIhsanY0ulNxh5ijzvrhIZttOS8SEELHcvN7z6g1BWG/cmRJULx3CHOR
V2DfEGMymuh/+vEGbKnjpbG0rZT81wSA1DYBhn/qcfh15zPbbCdH41eEK0MTsAj2
E58VzSl4K7HQL99fD5w6MlIXTdGijYI4jzx4Fj0xUn+pOz33n0VTJj5HIbm8U7p1
IGGKQJK+JqKU5CNvOWWzOWHSqR5YrFPaQ96BxULmZ/ANqZ7h6cEC3Jg8H/f7aGw3
Sc+IZru14z9W
-----END CERTIFICATE-----
